 PhysXCooking_64

 Timestamp is 6a1a46d3 (Sat May 30 11:09:23 2026)

 Preferred load address is 0000000180000000

 Start         Length     Name                   Class
 0001:00000000 000003c0H .text$di                CODE
 0001:000003c0 00029480H .text$mn                CODE
 0001:00029840 00000036H .text$mn$00             CODE
 0001:00029876 00000092H .text$x                 CODE
 0002:00000000 00000180H .idata$5                DATA
 0002:00000180 00000038H .00cfg                  DATA
 0002:000001b8 00000008H .CRT$XCA                DATA
 0002:000001c0 000001e0H .CRT$XCU                DATA
 0002:000003a0 00000008H .CRT$XCZ                DATA
 0002:000003a8 00000008H .CRT$XIA                DATA
 0002:000003b0 00000008H .CRT$XIZ                DATA
 0002:000003b8 00000008H .CRT$XPA                DATA
 0002:000003c0 00000008H .CRT$XPZ                DATA
 0002:000003c8 00000008H .CRT$XTA                DATA
 0002:000003d0 00000010H .CRT$XTZ                DATA
 0002:000003d8 00000000H .gehcont$y              DATA
 0002:000003d8 00000000H .gfids$y                DATA
 0002:000003e0 00002320H .rdata                  DATA
 0002:00002700 00000000H .rdata$CastGuardVftablesA DATA
 0002:00002700 00000000H .rdata$CastGuardVftablesC DATA
 0002:00002700 00000074H .rdata$r                DATA
 0002:00002774 000000b8H .rdata$voltmd           DATA
 0002:0000282c 000003fcH .rdata$zzzdbg           DATA
 0002:00002c28 00000008H .rtc$IAA                DATA
 0002:00002c30 00000008H .rtc$IZZ                DATA
 0002:00002c38 00000008H .rtc$TAA                DATA
 0002:00002c40 00000008H .rtc$TZZ                DATA
 0002:00002c48 00002e30H .xdata                  DATA
 0002:00005a78 00000040H .didat$2                DATA
 0002:00005ab8 00000020H .didat$3                DATA
 0002:00005ad8 00000188H .didat$4                DATA
 0002:00005c60 00000950H .didat$6                DATA
 0002:000065b0 000002b0H .didat$7                DATA
 0002:00006860 00001d00H .edata                  DATA
 0002:00008560 00000078H .idata$2                DATA
 0002:000085d8 00000018H .idata$3                DATA
 0002:000085f0 00000180H .idata$4                DATA
 0002:00008770 000003d4H .idata$6                DATA
 0003:00000000 000000e0H .data                   DATA
 0003:000000e0 00000598H .data$r                 DATA
 0003:00000678 00000020H .data$rs                DATA
 0003:00000698 00000188H .didat$5                DATA
 0003:00000820 00000498H .bss                    DATA
 0004:00000000 00001f38H .pdata                  DATA
 0005:00000000 00002208H _RDATA                  DATA
 0006:00000000 000000a0H .rsrc$01                DATA
 0006:000000a0 000004b0H .rsrc$02                DATA

  Address         Publics by Value              Rva+Base               Lib:Object

 0000:00000000       __AbsoluteZero             0000000000000000     <absolute>
 0000:00000000       ___safe_se_handler_count   0000000000000000     <absolute>
 0000:00000000       ___safe_se_handler_table   0000000000000000     <absolute>
 0000:00000000       __arm64x_extra_rfe_table   0000000000000000     <absolute>
 0000:00000000       __arm64x_extra_rfe_table_size 0000000000000000     <absolute>
 0000:00000000       __arm64x_native_entrypoint 0000000000000000     <absolute>
 0000:00000000       __arm64x_redirection_metadata 0000000000000000     <absolute>
 0000:00000000       __arm64x_redirection_metadata_count 0000000000000000     <absolute>
 0000:00000000       __dynamic_value_reloc_table 0000000000000000     <absolute>
 0000:00000000       __enclave_config           0000000000000000     <absolute>
 0000:00000000       __guard_check_icall_a64n_fptr 0000000000000000     <absolute>
 0000:00000000       __guard_eh_cont_count      0000000000000000     <absolute>
 0000:00000000       __guard_eh_cont_table      0000000000000000     <absolute>
 0000:00000000       __guard_fids_count         0000000000000000     <absolute>
 0000:00000000       __guard_fids_table         0000000000000000     <absolute>
 0000:00000000       __guard_iat_count          0000000000000000     <absolute>
 0000:00000000       __guard_iat_table          0000000000000000     <absolute>
 0000:00000000       __guard_longjmp_count      0000000000000000     <absolute>
 0000:00000000       __guard_longjmp_table      0000000000000000     <absolute>
 0000:00000000       __hybrid_auxiliary_delayload_iat 0000000000000000     <absolute>
 0000:00000000       __hybrid_auxiliary_delayload_iat_copy 0000000000000000     <absolute>
 0000:00000000       __hybrid_auxiliary_iat     0000000000000000     <absolute>
 0000:00000000       __hybrid_auxiliary_iat_copy 0000000000000000     <absolute>
 0000:00000000       __hybrid_code_map          0000000000000000     <absolute>
 0000:00000000       __hybrid_code_map_count    0000000000000000     <absolute>
 0000:00000000       __hybrid_image_info_bitfield 0000000000000000     <absolute>
 0000:00000000       __x64_code_ranges_to_entry_points 0000000000000000     <absolute>
 0000:00000000       __x64_code_ranges_to_entry_points_count 0000000000000000     <absolute>
 0000:00000100       __guard_flags              0000000000000100     <absolute>
 0000:00000000       __ImageBase                0000000180000000     <linker-defined>
 0001:000003c0       ??$?_UI@@YAPEAX_KV?$ReflectionAllocator@I@shdfnd@physx@@PEBDH@Z 00000001800013c0 f i Adjacencies.obj
 0001:00000460       ??$?_UV?$ReflectionAllocator@VAdjTriangle@physx@@@shdfnd@physx@@@UserAllocated@shdfnd@physx@@SAPEAX_KV?$ReflectionAllocator@VAdjTriangle@physx@@@12@PEBDH@Z 0000000180001460 f i Adjacencies.obj
 0001:00000500       ??0AdjacenciesBuilder@physx@@QEAA@XZ 0000000180001500 f   Adjacencies.obj
 0001:00000510       ??0AABBTreeBuildNode@Gu@physx@@QEAA@XZ 0000000180001510 f i BVHStructureBuilder.obj
 0001:00000510       ??0Allocator@shdfnd@physx@@QEAA@PEBD@Z 0000000180001510 f i Adjacencies.obj
 0001:00000510       ??0BigConvexData@physx@@QEAA@W4PxEMPTY@1@@Z 0000000180001510 f i BigConvexDataBuilder.obj
 0001:00000510       ??0Box@Gu@physx@@QEAA@XZ   0000000180001510 f i ConvexHullUtils.obj
 0001:00000510       ??0HeightFieldData@Gu@physx@@QEAA@W4PxEMPTY@2@@Z 0000000180001510 f i Cooking.obj
 0001:00000510       ??4Allocator@shdfnd@physx@@QEAAAEAV012@$$QEAV012@@Z 0000000180001510 f i Adjacencies.obj
 0001:00000510       ??4Allocator@shdfnd@physx@@QEAAAEAV012@AEBV012@@Z 0000000180001510 f i Adjacencies.obj
 0001:00000510       ??4MutexImpl@shdfnd@physx@@QEAAAEAV012@AEBV012@@Z 0000000180001510 f i Adjacencies.obj
 0001:00000510       ??4PxFoundation@physx@@QEAAAEAV01@AEBV01@@Z 0000000180001510 f i Adjacencies.obj
 0001:00000510       ?getAABB@AABBTreeBuildNode@Gu@physx@@QEBAAEBVPxBounds3@3@XZ 0000000180001510 f i BVHStructureBuilder.obj
 0001:00000510       ?getPaddedBounds@HeightFieldData@Gu@physx@@QEBAAEBVCenterExtentsPadded@23@XZ 0000000180001510 f i Cooking.obj
 0001:00000520       ??0PxFoundation@physx@@QEAA@AEBV01@@Z 0000000180001520 f i Adjacencies.obj
 0001:00000520       ??0PxFoundation@physx@@QEAA@XZ 0000000180001520 f i Adjacencies.obj
 0001:00000530       ??1Adjacencies@physx@@QEAA@XZ 0000000180001530 f   Adjacencies.obj
 0001:000005a0       ??1AdjacenciesBuilder@physx@@QEAA@XZ 00000001800015a0 f   Adjacencies.obj
 0001:000005b0       ??1PxFoundation@physx@@MEAA@XZ 00000001800015b0 f i Adjacencies.obj
 0001:000005c0       ??_EPxFoundation@physx@@MEAAPEAXI@Z 00000001800015c0 f i Adjacencies.obj
 0001:00000650       ??1AABBTreeBuildNode@Gu@physx@@QEAA@XZ 0000000180001650 f i BVHStructureBuilder.obj
 0001:00000650       ??1BigConvexDataBuilder@physx@@QEAA@XZ 0000000180001650 f i BigConvexDataBuilder.obj
 0001:00000650       ??1Box@Gu@physx@@QEAA@XZ   0000000180001650 f i ConvexHullUtils.obj
 0001:00000650       ??1HeightFieldData@Gu@physx@@QEAA@XZ 0000000180001650 f i Cooking.obj
 0001:00000650       ??_FAllocator@shdfnd@physx@@QEAAXXZ 0000000180001650 f i Adjacencies.obj
 0001:00000650       ?onMeshIndexFormatChange@TriangleMeshBuilder@physx@@UEAAXXZ 0000000180001650 f i TriangleMeshBuilder.obj
 0001:00000650       _guard_check_icall_nop     0000000180001650 f i MSVCRT:guard_support.obj
 0001:00000660       ?ComputeNbBoundaryEdges@Adjacencies@physx@@QEBAIXZ 0000000180001660 f   Adjacencies.obj
 0001:00000950       ?GetNbHits@RadixSort@Cm@physx@@QEBAIXZ 0000000180001950 f i Adjacencies.obj
 0001:00000960       ?GetNbTotalCalls@RadixSort@Cm@physx@@QEBAIXZ 0000000180001960 f i Adjacencies.obj
 0001:00000970       ?GetRanks@RadixSort@Cm@physx@@QEBAPEBIXZ 0000000180001970 f i Adjacencies.obj
 0001:00000970       ?getErrorCallback@Foundation@shdfnd@physx@@UEAAAEAVPxErrorCallback@3@XZ 0000000180001970 f i Adjacencies.obj
 0001:00000980       ?GetRecyclable@RadixSort@Cm@physx@@QEBAPEAIXZ 0000000180001980 f i Adjacencies.obj
 0001:00000980       ?GetValencies@BigConvexData@physx@@QEBAPEBUValency@Gu@2@XZ 0000000180001980 f i BigConvexDataBuilder.obj
 0001:00000980       ?getPos@AABBTreeBuildNode@Gu@physx@@QEBAPEBV123@XZ 0000000180001980 f i BVHStructureBuilder.obj
 0001:00000990       ?Init@AdjacenciesBuilder@physx@@QEAA_NAEBUADJACENCIESCREATE@2@@Z 0000000180001990 f   Adjacencies.obj
 0001:00000f70       ?allocate@?$ReflectionAllocator@I@shdfnd@physx@@QEAAPEAX_KPEBDH@Z 0000000180001f70 f i Adjacencies.obj
 0001:00001010       ?getAllocator@Foundation@shdfnd@physx@@QEAAAEAVPxAllocatorCallback@3@XZ 0000000180002010 f i Adjacencies.obj
 0001:00001020       ?getAllocatorCallback@Foundation@shdfnd@physx@@UEAAAEAVPxAllocatorCallback@3@XZ 0000000180002020 f i Adjacencies.obj
 0001:00001030       ?getErrorLevel@Foundation@shdfnd@physx@@UEBA?AW4Enum@PxErrorCode@3@XZ 0000000180002030 f i Adjacencies.obj
 0001:00001040       ?getInternalErrorCallback@Foundation@shdfnd@physx@@QEAAAEAVPxErrorCallback@3@XZ 0000000180002040 f i Adjacencies.obj
 0001:00001050       ?getNamedAllocMap@Foundation@shdfnd@physx@@QEAAAEAV?$HashMap@PEBVNamedAllocator@shdfnd@physx@@PEBDU?$Hash@PEBVNamedAllocator@shdfnd@physx@@@23@VNonTrackingAllocator@23@@23@XZ 0000000180002050 f i Adjacencies.obj
 0001:00001060       ?getNamedAllocMutex@Foundation@shdfnd@physx@@QEAAAEAV?$MutexT@VAllocator@shdfnd@physx@@@23@XZ 0000000180002060 f i Adjacencies.obj
 0001:00001070       ?getReportAllocationNames@Foundation@shdfnd@physx@@UEBA_NXZ 0000000180002070 f i Adjacencies.obj
 0001:00001080       ?getTempAllocFreeTable@Foundation@shdfnd@physx@@QEAAAEAV?$Array@PEATTempAllocatorChunk@shdfnd@physx@@VAllocator@23@@23@XZ 0000000180002080 f i Adjacencies.obj
 0001:00001090       ?getTempAllocMutex@Foundation@shdfnd@physx@@QEAAAEAV?$MutexT@VAllocator@shdfnd@physx@@@23@XZ 0000000180002090 f i Adjacencies.obj
 0001:000010a0       ?invalidateRanks@RadixSort@Cm@physx@@QEAAXXZ 00000001800020a0 f i Adjacencies.obj
 0001:000010b0       ?setErrorLevel@Foundation@shdfnd@physx@@UEAAXW4Enum@PxErrorCode@3@@Z 00000001800020b0 f i Adjacencies.obj
 0001:000010c0       ?setReportAllocationNames@Foundation@shdfnd@physx@@UEAAX_N@Z 00000001800020c0 f i Adjacencies.obj
 0001:000010d0       ??0DebugText@Cm@physx@@QEAA@$$QEAU012@@Z 00000001800020d0 f i Cooking.obj
 0001:000010d0       ??0DebugText@Cm@physx@@QEAA@AEBU012@@Z 00000001800020d0 f i Cooking.obj
 0001:000011b0       ??0HeightFieldData@Gu@physx@@QEAA@$$QEAU012@@Z 00000001800021b0 f i Cooking.obj
 0001:000011b0       ??0HeightFieldData@Gu@physx@@QEAA@AEBU012@@Z 00000001800021b0 f i Cooking.obj
 0001:000011b0       ??4HeightFieldData@Gu@physx@@QEAAAEAU012@$$QEAU012@@Z 00000001800021b0 f i Cooking.obj
 0001:000011b0       ??4HeightFieldData@Gu@physx@@QEAAAEAU012@AEBU012@@Z 00000001800021b0 f i Cooking.obj
 0001:00001210       ??0HeightFieldData@Gu@physx@@QEAA@XZ 0000000180002210 f i Cooking.obj
 0001:00001220       ??0RenderOutput@Cm@physx@@QEAA@AEAVRenderBuffer@12@@Z 0000000180002220 f i Cooking.obj
 0001:00001270       ??0RenderOutput@Cm@physx@@QEAA@AEBV012@@Z 0000000180002270 f i Cooking.obj
 0001:00001310       ??1PxConvexMesh@physx@@MEAA@XZ 0000000180002310 f i Cooking.obj
 0001:00001310       ??1PxHeightField@physx@@MEAA@XZ 0000000180002310 f i Cooking.obj
 0001:00001320       ??4DebugText@Cm@physx@@QEAAAEAU012@$$QEAU012@@Z 0000000180002320 f i Cooking.obj
 0001:00001320       ??4DebugText@Cm@physx@@QEAAAEAU012@AEBU012@@Z 0000000180002320 f i Cooking.obj
 0001:00001450       ??4FPUGuard@shdfnd@physx@@QEAAAEAV012@AEBV012@@Z 0000000180002450 f i Cooking.obj
 0001:00001470       ??_ECooking@physx@@UEAAPEAXI@Z 0000000180002470 f i Cooking.obj
 0001:00001470       ??_GCooking@physx@@UEAAPEAXI@Z 0000000180002470 f i Cooking.obj
 0001:000014c0       ??_EPxBase@physx@@MEAAPEAXI@Z 00000001800024c0 f i Cooking.obj
 0001:000014c0       ??_GPxBase@physx@@MEAAPEAXI@Z 00000001800024c0 f i Cooking.obj
 0001:000014f0       ??_EPxCooking@physx@@MEAAPEAXI@Z 00000001800024f0 f i Cooking.obj
 0001:000014f0       ??_GPxCooking@physx@@MEAAPEAXI@Z 00000001800024f0 f i Cooking.obj
 0001:00001520       ?allocate@?$Array@UPxDebugLine@physx@@V?$ReflectionAllocator@UPxDebugLine@physx@@@shdfnd@2@@shdfnd@physx@@IEAAPEAUPxDebugLine@3@I@Z 0000000180002520 f i Cooking.obj
 0001:000015c0       ?computeHullPolygons@Cooking@physx@@UEBA_NAEBVPxSimpleTriangleMesh@2@AEAVPxAllocatorCallback@2@AEAIAEAPEAVPxVec3@2@2AEAPEAI2AEAPEAUPxHullPolygon@2@@Z 00000001800025c0 f   Cooking.obj
 0001:000017b0       ?cookBVHStructure@Cooking@physx@@UEBA_NAEBVPxBVHStructureDesc@2@AEAVPxOutputStream@2@@Z 00000001800027b0 f   Cooking.obj
 0001:00001860       ?cookConvexMesh@Cooking@physx@@UEBA_NAEBVPxConvexMeshDesc@2@AEAVPxOutputStream@2@PEAW4Enum@PxConvexMeshCookingResult@2@@Z 0000000180002860 f   Cooking.obj
 0001:00001a40       ?cookConvexMeshInternal@Cooking@physx@@AEBA_NAEBVPxConvexMeshDesc@2@AEAVConvexMeshBuilder@2@PEAVConvexHullLib@2@PEAW4Enum@PxConvexMeshCookingResult@2@@Z 0000000180002a40 f   Cooking.obj
 0001:00001d20       ?cookHeightField@Cooking@physx@@UEBA_NAEBVPxHeightFieldDesc@2@AEAVPxOutputStream@2@@Z 0000000180002d20 f   Cooking.obj
 0001:00001df0       ?cookTriangleMesh@Cooking@physx@@UEBA_NAEBVPxTriangleMeshDesc@2@AEAVPxOutputStream@2@PEAW4Enum@PxTriangleMeshCookingResult@2@@Z 0000000180002df0 f   Cooking.obj
 0001:00001f30       ?copy@?$Array@UPxDebugLine@physx@@V?$ReflectionAllocator@UPxDebugLine@physx@@@shdfnd@2@@shdfnd@physx@@KAXPEAUPxDebugLine@3@0PEBU43@@Z 0000000180002f30 f i Cooking.obj
 0001:00001f30       ?copy@?$Array@URTreeNodeNQ@physx@@V?$ReflectionAllocator@URTreeNodeNQ@physx@@@shdfnd@2@@shdfnd@physx@@KAXPEAURTreeNodeNQ@3@0PEBU43@@Z 0000000180002f30 f i RTreeCooking.obj
 0001:000020d0       ?createBVHStructure@Cooking@physx@@UEBAPEAVPxBVHStructure@2@AEBVPxBVHStructureDesc@2@AEAVPxPhysicsInsertionCallback@2@@Z 00000001800030d0 f   Cooking.obj
 0001:00002180       ?createConvexMesh@Cooking@physx@@UEBAPEAVPxConvexMesh@2@AEBVPxConvexMeshDesc@2@AEAVPxPhysicsInsertionCallback@2@PEAW4Enum@PxConvexMeshCookingResult@2@@Z 0000000180003180 f   Cooking.obj
 0001:00002380       ?createHeightField@Cooking@physx@@UEBAPEAVPxHeightField@2@AEBVPxHeightFieldDesc@2@AEAVPxPhysicsInsertionCallback@2@@Z 0000000180003380 f   Cooking.obj
 0001:000024e0       ?createTriangleMesh@Cooking@physx@@UEBAPEAVPxTriangleMesh@2@AEBVPxTriangleMeshDesc@2@AEAVPxPhysicsInsertionCallback@2@PEAW4Enum@PxTriangleMeshCookingResult@2@@Z 00000001800034e0 f   Cooking.obj
 0001:00002630       ?getConcreteTypeName@PxConvexMesh@physx@@UEBAPEBDXZ 0000000180003630 f i Cooking.obj
 0001:00002640       ?getConcreteTypeName@PxHeightField@physx@@UEBAPEBDXZ 0000000180003640 f i Cooking.obj
 0001:00002650       ?getConvexEdgeThreshold@HeightField@Gu@physx@@UEBAMXZ 0000000180003650 f i Cooking.obj
 0001:00002660       ?getFlags@HeightField@Gu@physx@@UEBA?AV?$PxFlags@W4Enum@PxHeightFieldFlag@physx@@G@3@XZ 0000000180003660 f i Cooking.obj
 0001:00002670       ?getFormat@HeightField@Gu@physx@@UEBA?AW4Enum@PxHeightFieldFormat@3@XZ 0000000180003670 f i Cooking.obj
 0001:00002680       ?getHeight@HeightField@Gu@physx@@UEBAMMM@Z 0000000180003680 f i Cooking.obj
 0001:000026c0       ?getHeightInternal2@HeightField@Gu@physx@@QEBAMIMM@Z 00000001800036c0 f i Cooking.obj
 0001:00002830       ?getIndexBuffer@ConvexMesh@Gu@physx@@UEBAPEBEXZ 0000000180003830 f i Cooking.obj
 0001:00002870       ?getNbColumns@HeightField@Gu@physx@@UEBAIXZ 0000000180003870 f i Cooking.obj
 0001:00002880       ?getNbPolygons@ConvexMesh@Gu@physx@@UEBAIXZ 0000000180003880 f i Cooking.obj
 0001:00002890       ?getNbRows@HeightField@Gu@physx@@UEBAIXZ 0000000180003890 f i Cooking.obj
 0001:000028a0       ?getNbVertices@ConvexMesh@Gu@physx@@UEBAIXZ 00000001800038a0 f i Cooking.obj
 0001:000028b0       ?getDenormalizeScale@QuantizerImpl@@UEBAAEBVPxVec3@physx@@XZ 00000001800038b0 f   Quantizer.obj
 0001:000028b0       ?getParams@Cooking@physx@@UEBAAEBUPxCookingParams@2@XZ 00000001800038b0 f   Cooking.obj
 0001:000028c0       ?getSample@HeightField@Gu@physx@@UEBAAEBUPxHeightFieldSample@3@II@Z 00000001800038c0 f i Cooking.obj
 0001:000028d0       ?getSampleStride@HeightField@Gu@physx@@UEBAIXZ 00000001800038d0 f i Cooking.obj
 0001:000028e0       ?getTimestamp@HeightField@Gu@physx@@UEBAIXZ 00000001800038e0 f i Cooking.obj
 0001:000028f0       ?getTriangleMaterialIndex@HeightField@Gu@physx@@UEBAGI@Z 00000001800038f0 f i Cooking.obj
 0001:00002910       ?getTriangleNormal@HeightField@Gu@physx@@UEBA?AVPxVec3@3@I@Z 0000000180003910 f i Cooking.obj
 0001:00002a10       ?getVertices@ConvexMesh@Gu@physx@@UEBAPEBVPxVec3@3@XZ 0000000180003a10 f i Cooking.obj
 0001:00002a30       ?isKindOf@PxBase@physx@@MEBA_NPEBD@Z 0000000180003a30 f i Cooking.obj
 0001:00002a50       ?isKindOf@PxConvexMesh@physx@@MEBA_NPEBD@Z 0000000180003a50 f i Cooking.obj
 0001:00002a90       ?isKindOf@PxHeightField@physx@@MEBA_NPEBD@Z 0000000180003a90 f i Cooking.obj
 0001:00002ad0       ?isReleasable@PxBase@physx@@UEBA_NXZ 0000000180003ad0 f i Cooking.obj
 0001:00002ae0       ?outputSegment@RenderOutput@Cm@physx@@QEAAXAEBVPxVec3@3@0@Z 0000000180003ae0 f i Cooking.obj
 0001:00002ba0       ?platformMismatch@Cooking@physx@@UEBA_NXZ 0000000180003ba0 f   Cooking.obj
 0001:00002bb0       ?preExportDataReset@ConvexMesh@Gu@physx@@QEAAXXZ 0000000180003bb0 f i Cooking.obj
 0001:00002bb0       ?preExportDataReset@HeightField@Gu@physx@@QEAAXXZ 0000000180003bb0 f i Cooking.obj
 0001:00002bc0       ?recreate@?$Array@UPxDebugLine@physx@@V?$ReflectionAllocator@UPxDebugLine@physx@@@shdfnd@2@@shdfnd@physx@@IEAAXI@Z 0000000180003bc0 f i Cooking.obj
 0001:00002c40       ?release@Cooking@physx@@UEAAXXZ 0000000180003c40 f   Cooking.obj
 0001:00002c60       ?reserveSegments@RenderOutput@Cm@physx@@QEAAPEAUPxDebugLine@3@I@Z 0000000180003c60 f i Cooking.obj
 0001:00002cc0       ?setParams@Cooking@physx@@UEAAXAEBUPxCookingParams@2@@Z 0000000180003cc0 f   Cooking.obj
 0001:00002d20       ?validateConvexMesh@Cooking@physx@@UEBA_NAEBVPxConvexMeshDesc@2@@Z 0000000180003d20 f   Cooking.obj
 0001:00002d80       ?validateTriangleMesh@Cooking@physx@@UEBA_NAEBVPxTriangleMeshDesc@2@@Z 0000000180003d80 f   Cooking.obj
 0001:00002e90       PxCreateCooking            0000000180003e90 f   Cooking.obj
 0001:00002f80       ??0ReducedVertexCloud@physx@@QEAA@PEBVPxVec3@1@I@Z 0000000180003f80 f   CookingUtils.obj
 0001:00002fa0       ??1ReducedVertexCloud@physx@@QEAA@XZ 0000000180003fa0 f   CookingUtils.obj
 0001:00002fb0       ?Clean@ReducedVertexCloud@physx@@QEAAAEAV12@XZ 0000000180003fb0 f   CookingUtils.obj
 0001:00003020       ?Reduce@ReducedVertexCloud@physx@@QEAA_NPEAUREDUCEDCLOUD@2@@Z 0000000180004020 f   CookingUtils.obj
 0001:00003350       ??0EdgeListBuilder@Gu@physx@@QEAA@XZ 0000000180004350 f   EdgeList.obj
 0001:00003370       ??1EdgeList@Gu@physx@@QEAA@XZ 0000000180004370 f   EdgeList.obj
 0001:00003420       ??1EdgeListBuilder@Gu@physx@@QEAA@XZ 0000000180004420 f   EdgeList.obj
 0001:00003430       ?computeActiveEdges@EdgeListBuilder@Gu@physx@@AEAA_NIPEBIPEBGPEBVPxVec3@3@M@Z 0000000180004430 f   EdgeList.obj
 0001:00004a80       ?createEdgesToFaces@EdgeListBuilder@Gu@physx@@AEAA_NIPEBIPEBG@Z 0000000180005a80 f   EdgeList.obj
 0001:00004ce0       ?createFacesToEdges@EdgeListBuilder@Gu@physx@@AEAA_NIPEBIPEBG@Z 0000000180005ce0 f   EdgeList.obj
 0001:000051a0       ?init@EdgeListBuilder@Gu@physx@@QEAA_NAEBUEDGELISTCREATE@23@@Z 00000001800061a0 f   EdgeList.obj
 0001:000052d0       ??0MeshCleaner@physx@@QEAA@IPEBVPxVec3@1@IPEBIM@Z 00000001800062d0 f   MeshCleaner.obj
 0001:00005c90       ??1MeshCleaner@physx@@QEAA@XZ 0000000180006c90 f   MeshCleaner.obj
 0001:00005d20       ??$kmeans_cluster@VPxVec3@physx@@M@@YAIPEBVPxVec3@physx@@IIPEAV01@PEAIMM@Z 0000000180006d20 f i Quantizer.obj
 0001:00006700       ??_EQuantizer@physx@@MEAAPEAXI@Z 0000000180007700 f i Quantizer.obj
 0001:00006700       ??_GQuantizer@physx@@MEAAPEAXI@Z 0000000180007700 f i Quantizer.obj
 0001:00006730       ??_EQuantizerImpl@@EEAAPEAXI@Z 0000000180007730 f i Quantizer.obj
 0001:00006730       ??_GQuantizerImpl@@EEAAPEAXI@Z 0000000180007730 f i Quantizer.obj
 0001:00006800       ?allocate@?$Array@VPxVec3@physx@@V?$ReflectionAllocator@VPxVec3@physx@@@shdfnd@2@@shdfnd@physx@@IEAAPEAVPxVec3@3@I@Z 0000000180007800 f i Quantizer.obj
 0001:000068b0       ?copy@?$Array@VPxVec3@physx@@V?$ReflectionAllocator@VPxVec3@physx@@@shdfnd@2@@shdfnd@physx@@KAXPEAVPxVec3@3@0PEBV43@@Z 00000001800078b0 f i Quantizer.obj
 0001:00006970       ?createQuantizer@physx@@YAPEAVQuantizer@1@XZ 0000000180007970 f   Quantizer.obj
 0001:00006a20       ?getDenormalizeCenter@QuantizerImpl@@UEBAAEBVPxVec3@physx@@XZ 0000000180007a20 f i Quantizer.obj
 0001:00006a30       ?growAndPushBack@?$Array@VPxVec3@physx@@V?$ReflectionAllocator@VPxVec3@physx@@@shdfnd@2@@shdfnd@physx@@IEAAAEAVPxVec3@3@AEBV43@@Z 0000000180007a30 f i Quantizer.obj
 0001:00006c20       ?kmeansQuantize3D@QuantizerImpl@@UEAAPEBVPxVec3@physx@@IPEBV23@I_NIAEAI@Z 0000000180007c20 f i Quantizer.obj
 0001:00006e80       ?normalizeInput@QuantizerImpl@@AEAAXIPEBVPxVec3@physx@@I@Z 0000000180007e80 f i Quantizer.obj
 0001:00007280       ?release@QuantizerImpl@@UEAAXXZ 0000000180008280 f i Quantizer.obj
 0001:000072a0       ??$copy@V?$ReflectionAllocator@USlab@NodeAllocator@Gu@physx@@@shdfnd@physx@@@?$Array@USlab@NodeAllocator@Gu@physx@@V?$ReflectionAllocator@USlab@NodeAllocator@Gu@physx@@@shdfnd@4@@shdfnd@physx@@IEAAXAEBV012@@Z 00000001800082a0 f i BVHStructureBuilder.obj
 0001:00007320       ??0AABBTreeBuildNode@Gu@physx@@QEAA@AEBV012@@Z 0000000180008320 f i BVHStructureBuilder.obj
 0001:00007320       ??4AABBTreeBuildNode@Gu@physx@@QEAAAEAV012@AEBV012@@Z 0000000180008320 f i BVHStructureBuilder.obj
 0001:00007360       ??0AABBTreeBuildParams@Gu@physx@@QEAA@IIPEBVPxBounds3@2@@Z 0000000180008360 f i BVHStructureBuilder.obj
 0001:00007380       ??0BVHStructureBuilder@physx@@QEAA@XZ 0000000180008380 f   BVHStructureBuilder.obj
 0001:000073a0       ??0BuildStats@Gu@physx@@QEAA@XZ 00000001800083a0 f i BVHStructureBuilder.obj
 0001:000073b0       ??0NodeAllocator@Gu@physx@@QEAA@AEBV012@@Z 00000001800083b0 f i BVHStructureBuilder.obj
 0001:000073f0       ??1AABBTreeBuildParams@Gu@physx@@QEAA@XZ 00000001800083f0 f i BVHStructureBuilder.obj
 0001:000073f0       ?reset@AABBTreeBuildParams@Gu@physx@@QEAAXXZ 00000001800083f0 f i BVHStructureBuilder.obj
 0001:00007460       ??1BVHStructureBuilder@physx@@QEAA@XZ 0000000180008460 f   BVHStructureBuilder.obj
 0001:000074f0       ??4AABBTreeBuildParams@Gu@physx@@QEAAAEAV012@AEBV012@@Z 00000001800084f0 f i BVHStructureBuilder.obj
 0001:00007510       ??4BuildStats@Gu@physx@@QEAAAEAU012@$$QEAU012@@Z 0000000180008510 f i BVHStructureBuilder.obj
 0001:00007520       ??4BuildStats@Gu@physx@@QEAAAEAU012@AEBU012@@Z 0000000180008520 f i BVHStructureBuilder.obj
 0001:00007530       ??4NodeAllocator@Gu@physx@@QEAAAEAV012@AEBV012@@Z 0000000180008530 f i BVHStructureBuilder.obj
 0001:000075e0       ??_FAABBTreeBuildParams@Gu@physx@@QEAAXXZ 00000001800085e0 f i BVHStructureBuilder.obj
 0001:00007600       ??_V@YAXPEAX_K@Z           0000000180008600 f i MSVCRT:delete_array_size.obj
 0001:00007600       ?__global_delete@@YAXPEAX_K@Z 0000000180008600 f i BVHStructureBuilder.obj
 0001:00007610       ?allocate@?$Array@USlab@NodeAllocator@Gu@physx@@V?$ReflectionAllocator@USlab@NodeAllocator@Gu@physx@@@shdfnd@4@@shdfnd@physx@@IEAAPEAUSlab@NodeAllocator@Gu@3@I@Z 0000000180008610 f i BVHStructureBuilder.obj
 0001:000076b0       ?flatten@@YAXAEBVNodeAllocator@Gu@physx@@PEAUBVHNode@23@@Z 00000001800086b0 f   BVHStructureBuilder.obj
 0001:00007870       ?getCount@BuildStats@Gu@physx@@QEBAIXZ 0000000180008870 f i BVHStructureBuilder.obj
 0001:00007880       ?getNbPrimitives@AABBTreeBuildNode@Gu@physx@@QEBAIXZ 0000000180008880 f i BVHStructureBuilder.obj
 0001:00007880       ?getNbRuntimePrimitives@AABBTreeBuildNode@Gu@physx@@QEBAIXZ 0000000180008880 f i BVHStructureBuilder.obj
 0001:00007890       ?getNeg@AABBTreeBuildNode@Gu@physx@@QEBAPEBV123@XZ 0000000180008890 f i BVHStructureBuilder.obj
 0001:000078b0       ?getPrimitives@AABBTreeBuildNode@Gu@physx@@QEAAPEAIPEAI@Z 00000001800088b0 f i BVHStructureBuilder.obj
 0001:000078b0       ?getPrimitives@AABBTreeBuildNode@Gu@physx@@QEBAPEBIPEBI@Z 00000001800088b0 f i BVHStructureBuilder.obj
 0001:000078c0       ?increaseCount@BuildStats@Gu@physx@@QEAAXI@Z 00000001800088c0 f i BVHStructureBuilder.obj
 0001:000078d0       ?isLeaf@AABBTreeBuildNode@Gu@physx@@QEBA_NXZ 00000001800088d0 f i BVHStructureBuilder.obj
 0001:000078e0       ?loadFromDesc@BVHStructureBuilder@physx@@QEAA_NAEBVPxBVHStructureDesc@2@@Z 00000001800088e0 f   BVHStructureBuilder.obj
 0001:00007bf0       ?moveData@BVHStructureBuilder@physx@@QEAAXAEAUBVHStructureData@Gu@2@@Z 0000000180008bf0 f   BVHStructureBuilder.obj
 0001:00007c30       ?recreate@?$Array@USlab@NodeAllocator@Gu@physx@@V?$ReflectionAllocator@USlab@NodeAllocator@Gu@physx@@@shdfnd@4@@shdfnd@physx@@IEAAXI@Z 0000000180008c30 f i BVHStructureBuilder.obj
 0001:00007ce0       ?reset@BuildStats@Gu@physx@@QEAAXXZ 0000000180008ce0 f i BVHStructureBuilder.obj
 0001:00007cf0       ?save@BVHStructureBuilder@physx@@QEBA_NAEAVPxOutputStream@2@_N@Z 0000000180008cf0 f   BVHStructureBuilder.obj
 0001:00007e70       ?setCount@BuildStats@Gu@physx@@QEAAXI@Z 0000000180008e70 f i BVHStructureBuilder.obj
 0001:00007e80       ?setNbRunTimePrimitives@AABBTreeBuildNode@Gu@physx@@QEAAXI@Z 0000000180008e80 f i BVHStructureBuilder.obj
 0001:00007e90       ?saveHeightField@physx@@YA_NAEBVHeightField@Gu@1@AEAVPxOutputStream@1@_N@Z 0000000180008e90 f   HeightFieldCooking.obj
 0001:000080d0       ??$quickSelectFirstK@UBoundsLTE@physx@@@quickSelect@physx@@YAXPEIAIIIIAEBUBoundsLTE@1@@Z 00000001800090d0 f i RTreeCooking.obj
 0001:00008290       ??$smallSort@I$$CBUSortBoundsPredicate@physx@@@internal@shdfnd@physx@@YAXPEAIHHAEBUSortBoundsPredicate@2@@Z 0000000180009290 f i RTreeCooking.obj
 0001:000084f0       ??$sort@IU?$Less@I@shdfnd@physx@@V?$ReflectionAllocator@I@23@@shdfnd@physx@@YAXPEAIIAEBU?$Less@I@01@AEBV?$ReflectionAllocator@I@01@I@Z 00000001800094f0 f i RTreeCooking.obj
 0001:000088d0       ??$sort@IUSortBoundsPredicate@physx@@V?$ReflectionAllocator@I@shdfnd@2@@shdfnd@physx@@YAXPEAIIAEBUSortBoundsPredicate@1@AEBV?$ReflectionAllocator@I@01@I@Z 00000001800098d0 f i RTreeCooking.obj
 0001:00008d30       ?allocate@?$Array@UInterval@physx@@V?$InlineAllocator@$0CAAA@V?$ReflectionAllocator@UInterval@physx@@@shdfnd@physx@@@shdfnd@2@@shdfnd@physx@@IEAAPEAUInterval@3@I@Z 0000000180009d30 f i RTreeCooking.obj
 0001:00008df0       ?allocate@?$Array@UPxBounds3V@physx@@V?$ReflectionAllocator@UPxBounds3V@physx@@@shdfnd@2@@shdfnd@physx@@IEAAPEAUPxBounds3V@3@I@Z 0000000180009df0 f i RTreeCooking.obj
 0001:00008e90       ?allocate@?$Array@URTreeNodeNQ@physx@@V?$ReflectionAllocator@URTreeNodeNQ@physx@@@shdfnd@2@@shdfnd@physx@@IEAAPEAURTreeNodeNQ@3@I@Z 0000000180009e90 f i RTreeCooking.obj
 0001:00008f30       ?allocate@?$Array@URTreeNodeQ@Gu@physx@@V?$ReflectionAllocator@URTreeNodeQ@Gu@physx@@@shdfnd@3@@shdfnd@physx@@IEAAPEAURTreeNodeQ@Gu@3@I@Z 0000000180009f30 f i RTreeCooking.obj
 0001:00009c70       ?buildFromTriangles@RTreeCooker@physx@@SAXAEAURTree@Gu@2@PEBVPxVec3@2@IPEBGPEBIIAEAV?$Array@IV?$ReflectionAllocator@I@shdfnd@physx@@@shdfnd@2@PEAURemapCallback@12@MW4Enum@PxMeshCookingHint@2@@Z 000000018000ac70 f   RTreeCooking.obj
 0001:00009f30       ?growAndPushBack@?$Array@IV?$ReflectionAllocator@I@shdfnd@physx@@@shdfnd@physx@@IEAAAEAIAEBI@Z 000000018000af30 f i RTreeCooking.obj
 0001:0000a000       ?growAndPushBack@?$Array@UInterval@physx@@V?$InlineAllocator@$0CAAA@V?$ReflectionAllocator@UInterval@physx@@@shdfnd@physx@@@shdfnd@2@@shdfnd@physx@@IEAAAEAUInterval@3@AEBU43@@Z 000000018000b000 f i RTreeCooking.obj
 0001:0000a0e0       ?growAndPushBack@?$Array@UPxBounds3V@physx@@V?$ReflectionAllocator@UPxBounds3V@physx@@@shdfnd@2@@shdfnd@physx@@IEAAAEAUPxBounds3V@3@AEBU43@@Z 000000018000b0e0 f i RTreeCooking.obj
 0001:0000a1c0       ?growAndPushBack@?$Array@URTreeNodeNQ@physx@@V?$ReflectionAllocator@URTreeNodeNQ@physx@@@shdfnd@2@@shdfnd@physx@@IEAAAEAURTreeNodeNQ@3@AEBU43@@Z 000000018000b1c0 f i RTreeCooking.obj
 0001:0000a2b0       ?growAndPushBack@?$Array@URTreeNodeQ@Gu@physx@@V?$ReflectionAllocator@URTreeNodeQ@Gu@physx@@@shdfnd@3@@shdfnd@physx@@IEAAAEAURTreeNodeQ@Gu@3@AEBU453@@Z 000000018000b2b0 f i RTreeCooking.obj
 0001:0000a3a0       ?recreate@?$Array@IV?$ReflectionAllocator@I@shdfnd@physx@@@shdfnd@physx@@IEAAXI@Z 000000018000b3a0 f i RTreeCooking.obj
 0001:0000a460       ?recreate@?$Array@UPxBounds3V@physx@@V?$ReflectionAllocator@UPxBounds3V@physx@@@shdfnd@2@@shdfnd@physx@@IEAAXI@Z 000000018000b460 f i RTreeCooking.obj
 0001:0000a510       ?recreate@?$Array@URTreeNodeNQ@physx@@V?$ReflectionAllocator@URTreeNodeNQ@physx@@@shdfnd@2@@shdfnd@physx@@IEAAXI@Z 000000018000b510 f i RTreeCooking.obj
 0001:0000a590       ?recreate@?$Array@URTreeNodeQ@Gu@physx@@V?$ReflectionAllocator@URTreeNodeQ@Gu@physx@@@shdfnd@3@@shdfnd@physx@@IEAAXI@Z 000000018000b590 f i RTreeCooking.obj
 0001:0000a650       ?recreate@?$Array@VPxVec3@physx@@V?$ReflectionAllocator@VPxVec3@physx@@@shdfnd@2@@shdfnd@physx@@IEAAXI@Z 000000018000b650 f i RTreeCooking.obj
 0001:0000a6d0       ?resize@?$Array@IV?$ReflectionAllocator@I@shdfnd@physx@@@shdfnd@physx@@QEAAXIAEBI@Z 000000018000b6d0 f i RTreeCooking.obj
 0001:0000a790       ?resizeUninitialized@?$Array@URTreeNodeNQ@physx@@V?$ReflectionAllocator@URTreeNodeNQ@physx@@@shdfnd@2@@shdfnd@physx@@QEAAXI@Z 000000018000b790 f i RTreeCooking.obj
 0001:0000a7d0       ?sort4@SubSortQuick@physx@@QEAAXPEIAIIAEAV?$Array@URTreeNodeNQ@physx@@V?$ReflectionAllocator@URTreeNodeNQ@physx@@@shdfnd@2@@shdfnd@2@AEAIAEAUPxBounds3V@2@I@Z 000000018000b7d0 f i RTreeCooking.obj
 0001:0000ab70       ?sort4@SubSortSAH@physx@@QEAAXPEAIIAEAV?$Array@URTreeNodeNQ@physx@@V?$ReflectionAllocator@URTreeNodeNQ@physx@@@shdfnd@2@@shdfnd@2@AEAIIPEAURTreeNodeNQ@2@@Z 000000018000bb70 f i RTreeCooking.obj
 0001:0000b4b0       ?split@SubSortSAH@physx@@QEAAIPEAII@Z 000000018000c4b0 f i RTreeCooking.obj
 0001:0000bf90       ?computeLocalBounds@MeshBulider@physx@@IEAAXAEAVMeshDataBase@Gu@2@@Z 000000018000cf90 f   MeshBuilder.obj
 0001:0000c020       ??$?_UE@@YAPEAX_KV?$ReflectionAllocator@E@shdfnd@physx@@PEBDH@Z 000000018000d020 f i TriangleMeshBuilder.obj
 0001:0000c0c0       ??$?_UG@@YAPEAX_KV?$ReflectionAllocator@G@shdfnd@physx@@PEBDH@Z 000000018000d0c0 f i TriangleMeshBuilder.obj
 0001:0000c160       ??$median3@UEdgeTriLookup@physx@@$$CBU?$Less@UEdgeTriLookup@physx@@@shdfnd@2@@internal@shdfnd@physx@@YAXPEAUEdgeTriLookup@2@HHAEBU?$Less@UEdgeTriLookup@physx@@@12@@Z 000000018000d160 f i TriangleMeshBuilder.obj
 0001:0000c2b0       ??$sort@UEdgeTriLookup@physx@@U?$Less@UEdgeTriLookup@physx@@@shdfnd@2@V?$ReflectionAllocator@UEdgeTriLookup@physx@@@42@@shdfnd@physx@@YAXPEAUEdgeTriLookup@1@IAEBU?$Less@UEdgeTriLookup@physx@@@01@AEBV?$ReflectionAllocator@UEdgeTriLookup@physx@@@01@I@Z 000000018000d2b0 f i TriangleMeshBuilder.obj
 0001:0000c750       ??0BV4TriangleMeshBuilder@physx@@QEAA@AEBUPxCookingParams@1@@Z 000000018000d750 f   TriangleMeshBuilder.obj
 0001:0000c820       ??0RTreeTriangleMeshBuilder@physx@@QEAA@AEBUPxCookingParams@1@@Z 000000018000d820 f   TriangleMeshBuilder.obj
 0001:0000c8e0       ??1BV4TriangleMeshBuilder@physx@@UEAA@XZ 000000018000d8e0 f   TriangleMeshBuilder.obj
 0001:0000c940       ??1MeshDataBase@Gu@physx@@UEAA@XZ 000000018000d940 f i TriangleMeshBuilder.obj
 0001:0000ca30       ??1RTreeTriangleData@Gu@physx@@UEAA@XZ 000000018000da30 f i TriangleMeshBuilder.obj
 0001:0000caa0       ??1RTreeTriangleMeshBuilder@physx@@UEAA@XZ 000000018000daa0 f   TriangleMeshBuilder.obj
 0001:0000cad0       ??1TriangleMeshBuilder@physx@@UEAA@XZ 000000018000dad0 f   TriangleMeshBuilder.obj
 0001:0000cb40       ??1TriangleMeshData@Gu@physx@@UEAA@XZ 000000018000db40 f i TriangleMeshBuilder.obj
 0001:0000cc10       ??_EBV4TriangleData@Gu@physx@@UEAAPEAXI@Z 000000018000dc10 f i TriangleMeshBuilder.obj
 0001:0000cc10       ??_GBV4TriangleData@Gu@physx@@UEAAPEAXI@Z 000000018000dc10 f i TriangleMeshBuilder.obj
 0001:0000cca0       ??_EBV4TriangleMeshBuilder@physx@@UEAAPEAXI@Z 000000018000dca0 f i TriangleMeshBuilder.obj
 0001:0000cca0       ??_GBV4TriangleMeshBuilder@physx@@UEAAPEAXI@Z 000000018000dca0 f i TriangleMeshBuilder.obj
 0001:0000cd20       ??_EMeshDataBase@Gu@physx@@UEAAPEAXI@Z 000000018000dd20 f i TriangleMeshBuilder.obj
 0001:0000cd20       ??_GMeshDataBase@Gu@physx@@UEAAPEAXI@Z 000000018000dd20 f i TriangleMeshBuilder.obj
 0001:0000cd90       ??_ERTreeCookerRemap@physx@@UEAAPEAXI@Z 000000018000dd90 f i TriangleMeshBuilder.obj
 0001:0000cd90       ??_GRTreeCookerRemap@physx@@UEAAPEAXI@Z 000000018000dd90 f i TriangleMeshBuilder.obj
 0001:0000cdc0       ??_ERTreeTriangleData@Gu@physx@@UEAAPEAXI@Z 000000018000ddc0 f i TriangleMeshBuilder.obj
 0001:0000cdc0       ??_GRTreeTriangleData@Gu@physx@@UEAAPEAXI@Z 000000018000ddc0 f i TriangleMeshBuilder.obj
 0001:0000ce30       ??_ERTreeTriangleMeshBuilder@physx@@UEAAPEAXI@Z 000000018000de30 f i TriangleMeshBuilder.obj
 0001:0000ce30       ??_GRTreeTriangleMeshBuilder@physx@@UEAAPEAXI@Z 000000018000de30 f i TriangleMeshBuilder.obj
 0001:0000ce80       ??_ERemapCallback@RTreeCooker@physx@@UEAAPEAXI@Z 000000018000de80 f i TriangleMeshBuilder.obj
 0001:0000ce80       ??_GRemapCallback@RTreeCooker@physx@@UEAAPEAXI@Z 000000018000de80 f i TriangleMeshBuilder.obj
 0001:0000ceb0       ??_ETriangleMeshBuilder@physx@@UEAAPEAXI@Z 000000018000deb0 f i TriangleMeshBuilder.obj
 0001:0000ceb0       ??_GTriangleMeshBuilder@physx@@UEAAPEAXI@Z 000000018000deb0 f i TriangleMeshBuilder.obj
 0001:0000cef0       ??_ETriangleMeshData@Gu@physx@@UEAAPEAXI@Z 000000018000def0 f i TriangleMeshBuilder.obj
 0001:0000cef0       ??_GTriangleMeshData@Gu@physx@@UEAAPEAXI@Z 000000018000def0 f i TriangleMeshBuilder.obj
 0001:0000cf60       ?allocateTriangles@TriangleMeshData@Gu@physx@@QEAAPEAXI_NI@Z 000000018000df60 f i TriangleMeshBuilder.obj
 0001:0000d040       ?allocateVertices@MeshDataBase@Gu@physx@@QEAAPEAVPxVec3@3@I@Z 000000018000e040 f i TriangleMeshBuilder.obj
 0001:0000d590       ?checkMeshIndicesSize@TriangleMeshBuilder@physx@@QEAAXXZ 000000018000e590 f   TriangleMeshBuilder.obj
 0001:0000d8a0       ?cleanMesh@TriangleMeshBuilder@physx@@QEAA_N_NPEAW4Enum@PxTriangleMeshCookingResult@2@@Z 000000018000e8a0 f   TriangleMeshBuilder.obj
 0001:0000dd70       ?createGRBMidPhaseAndData@TriangleMeshBuilder@physx@@QEAAXI@Z 000000018000ed70 f   TriangleMeshBuilder.obj
 0001:0000e110       ?createMidPhaseStructure@BV4TriangleMeshBuilder@physx@@UEAAXXZ 000000018000f110 f   TriangleMeshBuilder.obj
 0001:0000e390       ?createMidPhaseStructure@RTreeTriangleMeshBuilder@physx@@UEAAXXZ 000000018000f390 f   TriangleMeshBuilder.obj
 0001:0000e470       ?createSharedEdgeData@TriangleMeshBuilder@physx@@QEAAX_N0@Z 000000018000f470 f   TriangleMeshBuilder.obj
 0001:0000eae0       ?getMidphaseID@BV4TriangleMeshBuilder@physx@@UEBA?AW4Enum@PxMeshMidPhase@2@XZ 000000018000fae0 f i TriangleMeshBuilder.obj
 0001:0000eae0       _get_startup_argv_mode     000000018000fae0 f i MSVCRT:argv_mode.obj
 0001:0000eaf0       ?getMidphaseID@RTreeTriangleMeshBuilder@physx@@UEBA?AW4Enum@PxMeshMidPhase@2@XZ 000000018000faf0 f i TriangleMeshBuilder.obj
 0001:0000eaf0       __scrt_stub_for_is_c_termination_complete 000000018000faf0 f i MSVCRT:ucrt_stubs.obj
 0001:0000eaf0       _is_c_termination_complete 000000018000faf0 f i MSVCRT:ucrt_stubs.obj
 0001:0000eb00       ?importMesh@TriangleMeshBuilder@physx@@IEAA_NAEBVPxTriangleMeshDesc@2@AEBUPxCookingParams@2@PEAW4Enum@PxTriangleMeshCookingResult@2@_N@Z 000000018000fb00 f   TriangleMeshBuilder.obj
 0001:0000edb0       ?loadFromDesc@TriangleMeshBuilder@physx@@QEAA_NAEBVPxTriangleMeshDesc@2@PEAW4Enum@PxTriangleMeshCookingResult@2@_N@Z 000000018000fdb0 f   TriangleMeshBuilder.obj
 0001:0000f1a0       ?onMeshIndexFormatChange@BV4TriangleMeshBuilder@physx@@UEAAXXZ 00000001800101a0 f   TriangleMeshBuilder.obj
 0001:0000f1e0       ?remap@RTreeCookerRemap@physx@@UEAAXPEAIII@Z 00000001800101e0 f i TriangleMeshBuilder.obj
 0001:0000f200       ?remapTopology@TriangleMeshBuilder@physx@@QEAAXPEBI@Z 0000000180010200 f   TriangleMeshBuilder.obj
 0001:0000f450       ?save@TriangleMeshBuilder@physx@@QEBA_NAEAVPxOutputStream@2@_NAEBUPxCookingParams@2@@Z 0000000180010450 f   TriangleMeshBuilder.obj
 0001:0000fa20       ?saveMidPhaseStructure@BV4TriangleMeshBuilder@physx@@UEBAXAEAVPxOutputStream@2@_N@Z 0000000180010a20 f   TriangleMeshBuilder.obj
 0001:0000fbc0       ?saveMidPhaseStructure@RTreeTriangleMeshBuilder@physx@@UEBAXAEAVPxOutputStream@2@_N@Z 0000000180010bc0 f   TriangleMeshBuilder.obj
 0001:0000fe00       ??0BigConvexDataBuilder@physx@@QEAA@PEBUConvexHullData@Gu@1@PEAVBigConvexData@1@PEBVPxVec3@1@@Z 0000000180010e00 f   BigConvexDataBuilder.obj
 0001:0000fe10       ??4BigConvexData@physx@@QEAAAEAV01@AEBV01@@Z 0000000180010e10 f i BigConvexDataBuilder.obj
 0001:0000fe30       ?GetAdjacentVerts@BigConvexData@physx@@QEBAPEBEXZ 0000000180010e30 f i BigConvexDataBuilder.obj
 0001:0000fe40       ?GetNbNeighbors@BigConvexData@physx@@QEBAGI@Z 0000000180010e40 f i BigConvexDataBuilder.obj
 0001:0000fe40       ?GetValency@BigConvexData@physx@@QEBAGI@Z 0000000180010e40 f i BigConvexDataBuilder.obj
 0001:0000fe50       ?GetNbSamples@BigConvexData@physx@@QEBAIXZ 0000000180010e50 f i BigConvexDataBuilder.obj
 0001:0000fe60       ?GetNbVerts@BigConvexData@physx@@QEBAIXZ 0000000180010e60 f i BigConvexDataBuilder.obj
 0001:0000fe70       ?GetNeighbors@BigConvexData@physx@@QEBAPEBEI@Z 0000000180010e70 f i BigConvexDataBuilder.obj
 0001:0000fe80       ?GetOffset@BigConvexData@physx@@QEBAGI@Z 0000000180010e80 f i BigConvexDataBuilder.obj
 0001:0000fe90       ?GetSubdiv@BigConvexData@physx@@QEBAIXZ 0000000180010e90 f i BigConvexDataBuilder.obj
 0001:0000fea0       ?computeValencies@BigConvexDataBuilder@physx@@QEAA_NAEBVConvexHullBuilder@2@@Z 0000000180010ea0 f   BigConvexDataBuilder.obj
 0001:00010260       ?precompute@BigConvexDataBuilder@physx@@QEAA_NI@Z 0000000180011260 f   BigConvexDataBuilder.obj
 0001:00010e90       ?save@BigConvexDataBuilder@physx@@QEBA_NAEAVPxOutputStream@2@_N@Z 0000000180011e90 f   BigConvexDataBuilder.obj
 0001:00010f70       ?saveValencies@BigConvexDataBuilder@physx@@QEBA_NAEAVPxOutputStream@2@_N@Z 0000000180011f70 f   BigConvexDataBuilder.obj
 0001:00011120       ??0ConvexHullBuilder@physx@@QEAA@PEAUConvexHullData@Gu@1@_N@Z 0000000180012120 f   ConvexHullBuilder.obj
 0001:00011150       ??1ConvexHullBuilder@physx@@QEAA@XZ 0000000180012150 f   ConvexHullBuilder.obj
 0001:00011260       ?calculateVertexMapTable@ConvexHullBuilder@physx@@QEAA_NI_N@Z 0000000180012260 f   ConvexHullBuilder.obj
 0001:00011420       ?checkHullPolygons@ConvexHullBuilder@physx@@QEBA_NXZ 0000000180012420 f   ConvexHullBuilder.obj
 0001:00011c20       ?computeGeomCenter@ConvexHullBuilder@physx@@IEBA_NAEAVPxVec3@2@IPEAUHullTriangleData@2@@Z 0000000180012c20 f   ConvexHullBuilder.obj
 0001:00011ed0       ?copy@ConvexHullBuilder@physx@@QEAA_NAEAUConvexHullData@Gu@2@AEAI@Z 0000000180012ed0 f   ConvexHullBuilder.obj
 0001:00012150       ?createEdgeList@ConvexHullBuilder@physx@@QEAA_N_NI@Z 0000000180013150 f   ConvexHullBuilder.obj
 0001:00012940       ?init@ConvexHullBuilder@physx@@QEAA_NIPEBVPxVec3@2@PEBIIIPEBUPxHullPolygon@2@_NPEAVConvexHullLib@2@@Z 0000000180013940 f   ConvexHullBuilder.obj
 0001:00012d50       ?save@ConvexHullBuilder@physx@@QEBA_NAEAVPxOutputStream@2@_N@Z 0000000180013d50 f   ConvexHullBuilder.obj
 0001:00013090       ??1ConvexHullLib@physx@@UEAA@XZ 0000000180014090 f   ConvexHullLib.obj
 0001:000130f0       ??_EConvexHullLib@physx@@UEAAPEAXI@Z 00000001800140f0 f i ConvexHullLib.obj
 0001:000130f0       ??_GConvexHullLib@physx@@UEAAPEAXI@Z 00000001800140f0 f i ConvexHullLib.obj
 0001:00013570       ?cleanupVertices@ConvexHullLib@physx@@IEAA_NIPEBVPxVec3@2@IAEAIPEAV32@AEAV32@3@Z 0000000180014570 f   ConvexHullLib.obj
 0001:000139f0       ?shiftAndcleanupVertices@ConvexHullLib@physx@@IEAA_NIPEBVPxVec3@2@IAEAIPEAV32@AEAV32@3@Z 00000001800149f0 f   ConvexHullLib.obj
 0001:00013ea0       ?shiftConvexMeshDesc@ConvexHullLib@physx@@IEAAXAEAVPxConvexMeshDesc@2@@Z 0000000180014ea0 f   ConvexHullLib.obj
 0001:00013f60       ?swapLargestFace@ConvexHullLib@physx@@IEAAXAEAVPxConvexMeshDesc@2@@Z 0000000180014f60 f   ConvexHullLib.obj
 0001:00014150       ??0Box@Gu@physx@@QEAA@AEBV012@@Z 0000000180015150 f i ConvexHullUtils.obj
 0001:00014150       ??4Box@Gu@physx@@QEAAAEBV012@AEBV012@@Z 0000000180015150 f i ConvexHullUtils.obj
 0001:000141b0       ??0Box@Gu@physx@@QEAA@AEBVPxVec3@2@0AEBVPxMat33@2@@Z 00000001800151b0 f i ConvexHullUtils.obj
 0001:00014220       ??0ConvexHull@physx@@QEAA@AEBVPxVec3@1@AEBVPxTransform@1@AEBV?$Array@VPxPlane@physx@@V?$ReflectionAllocator@VPxPlane@physx@@@shdfnd@2@@shdfnd@1@@Z 0000000180015220 f   ConvexHullUtils.obj
 0001:000153d0       ??0PxQuat@physx@@QEAA@AEBVPxMat33@1@@Z 00000001800163d0 f i ConvexHullUtils.obj
 0001:000155c0       ?allocate@?$Array@VHalfEdge@ConvexHull@physx@@V?$ReflectionAllocator@VHalfEdge@ConvexHull@physx@@@shdfnd@3@@shdfnd@physx@@IEAAPEAVHalfEdge@ConvexHull@3@I@Z 00000001800165c0 f i ConvexHullUtils.obj
 0001:00015660       ?allocate@?$Array@VPxPlane@physx@@V?$ReflectionAllocator@VPxPlane@physx@@@shdfnd@2@@shdfnd@physx@@IEAAPEAVPxPlane@3@I@Z 0000000180016660 f i ConvexHullUtils.obj
 0001:00015700       ?assertIntact@ConvexHull@physx@@QEBA_NM@Z 0000000180016700 f   ConvexHullUtils.obj
 0001:00015a10       ?computeAABBExtent@Box@Gu@physx@@QEBA?AVPxVec3@3@XZ 0000000180016a10 f i ConvexHullUtils.obj
 0001:00015ad0       ?computeBoxPoints@Box@Gu@physx@@QEBAXPEIAVPxVec3@3@@Z 0000000180016ad0 f i ConvexHullUtils.obj
 0001:00015b10       ?computeOBBFromConvex@physx@@YA_NAEBVPxConvexMeshDesc@1@AEAVPxVec3@1@AEAVPxTransform@1@@Z 0000000180016b10 f   ConvexHullUtils.obj
 0001:00016280       ?computeOBBSIMD@local@@YAXIPEBT__m128@@AEAT2@AEBT2@1@Z 0000000180017280 f   ConvexHullUtils.obj
 0001:00016660       ?convexHullCrop@physx@@YAPEAVConvexHull@1@AEBV21@AEBVPxPlane@1@M@Z 0000000180017660 f   ConvexHullUtils.obj
 0001:00017450       ?copy@?$Array@VPxPlane@physx@@V?$ReflectionAllocator@VPxPlane@physx@@@shdfnd@2@@shdfnd@physx@@KAXPEAVPxPlane@3@0PEBV43@@Z 0000000180018450 f i ConvexHullUtils.obj
 0001:00017540       ?findCandidatePlane@ConvexHull@physx@@QEBAHMM@Z 0000000180018540 f   ConvexHullUtils.obj
 0001:00017990       ?getInverse@PxMat33@physx@@QEBA?BV12@XZ 0000000180018990 f i ConvexHullUtils.obj
 0001:00017bd0       ?getTransform@Box@Gu@physx@@QEBA?AVPxTransform@3@XZ 0000000180018bd0 f i ConvexHullUtils.obj
 0001:00017c30       ?growAndPushBack@?$Array@VHalfEdge@ConvexHull@physx@@V?$ReflectionAllocator@VHalfEdge@ConvexHull@physx@@@shdfnd@3@@shdfnd@physx@@IEAAAEAVHalfEdge@ConvexHull@3@AEBV453@@Z 0000000180018c30 f i ConvexHullUtils.obj
 0001:00017cf0       ?growAndPushBack@?$Array@VPxPlane@physx@@V?$ReflectionAllocator@VPxPlane@physx@@@shdfnd@2@@shdfnd@physx@@IEAAAEAVPxPlane@3@AEBV43@@Z 0000000180018cf0 f i ConvexHullUtils.obj
 0001:00017dc0       ?isValid@Box@Gu@physx@@QEBA_NXZ 0000000180018dc0 f i ConvexHullUtils.obj
 0001:00017de0       ?maxNumVertsPerFace@ConvexHull@physx@@QEBAIXZ 0000000180018de0 f   ConvexHullUtils.obj
 0001:00017e50       ?recreate@?$Array@VHalfEdge@ConvexHull@physx@@V?$ReflectionAllocator@VHalfEdge@ConvexHull@physx@@@shdfnd@3@@shdfnd@physx@@IEAAXI@Z 0000000180018e50 f i ConvexHullUtils.obj
 0001:00017ef0       ?recreate@?$Array@VPxPlane@physx@@V?$ReflectionAllocator@VPxPlane@physx@@@shdfnd@2@@shdfnd@physx@@IEAAXI@Z 0000000180018ef0 f i ConvexHullUtils.obj
 0001:00017f70       ?resize@?$Array@VHalfEdge@ConvexHull@physx@@V?$ReflectionAllocator@VHalfEdge@ConvexHull@physx@@@shdfnd@3@@shdfnd@physx@@QEAAXIAEBVHalfEdge@ConvexHull@3@@Z 0000000180018f70 f i ConvexHullUtils.obj
 0001:00018030       ?resize@?$Array@VPxPlane@physx@@V?$ReflectionAllocator@VPxPlane@physx@@@shdfnd@2@@shdfnd@physx@@QEAAXIAEBVPxPlane@3@@Z 0000000180019030 f i ConvexHullUtils.obj
 0001:00018140       ?resize@?$Array@VPxVec3@physx@@V?$ReflectionAllocator@VPxVec3@physx@@@shdfnd@2@@shdfnd@physx@@QEAAXIAEBVPxVec3@3@@Z 0000000180019140 f i ConvexHullUtils.obj
 0001:00018230       ?rotate@Box@Gu@physx@@QEBA?AVPxVec3@3@AEBV43@@Z 0000000180019230 f i ConvexHullUtils.obj
 0001:000182c0       ?rotateInv@Box@Gu@physx@@QEBA?AVPxVec3@3@AEBV43@@Z 00000001800192c0 f i ConvexHullUtils.obj
 0001:00018350       ?setAxes@Box@Gu@physx@@QEAAXAEBVPxVec3@3@00@Z 0000000180019350 f i ConvexHullUtils.obj
 0001:00018390       ?setEmpty@Box@Gu@physx@@QEAAXXZ 0000000180019390 f i ConvexHullUtils.obj
 0001:000183d0       ?transform@Box@Gu@physx@@QEBA?AVPxVec3@3@AEBV43@@Z 00000001800193d0 f i ConvexHullUtils.obj
 0001:00018470       ??0ConvexMeshBuilder@physx@@QEAA@_N@Z 0000000180019470 f   ConvexMeshBuilder.obj
 0001:000184d0       ??1ConvexMeshBuilder@physx@@QEAA@XZ 00000001800194d0 f   ConvexMeshBuilder.obj
 0001:00018920       ?build@ConvexMeshBuilder@physx@@QEAA_NAEBVPxConvexMeshDesc@2@I_NPEAVConvexHullLib@2@@Z 0000000180019920 f   ConvexMeshBuilder.obj
 0001:00018c40       ?computeHullPolygons@ConvexMeshBuilder@physx@@QEAA_NAEBIPEBVPxVec3@2@0PEBIAEAVPxAllocatorCallback@2@AEAIAEAPEAV32@4AEAPEAI4AEAPEAUPxHullPolygon@2@@Z 0000000180019c40 f   ConvexMeshBuilder.obj
 0001:00018e80       ?computeMassInfo@ConvexMeshBuilder@physx@@QEAAX_N@Z 0000000180019e80 f   ConvexMeshBuilder.obj
 0001:000192e0       ?copy@ConvexMeshBuilder@physx@@QEAA_NAEAUConvexHullInitData@Gu@2@@Z 000000018001a2e0 f   ConvexMeshBuilder.obj
 0001:00019400       ?isFinite@PxVec3@physx@@QEBA_NXZ 000000018001a400 f i ConvexMeshBuilder.obj
 0001:00019460       ?loadConvexHull@ConvexMeshBuilder@physx@@QEAA_NAEBVPxConvexMeshDesc@2@PEAVConvexHullLib@2@@Z 000000018001a460 f   ConvexMeshBuilder.obj
 0001:000196e0       ?save@ConvexMeshBuilder@physx@@QEBA_NAEAVPxOutputStream@2@_N@Z 000000018001a6e0 f   ConvexMeshBuilder.obj
 0001:000198f0       ??$?_UUHullTriangleData@physx@@@@YAPEAX_KV?$ReflectionAllocator@UHullTriangleData@physx@@@shdfnd@physx@@PEBDH@Z 000000018001a8f0 f i ConvexPolygonsBuilder.obj
 0001:00019990       ??$copy@V?$ReflectionAllocator@VPair@@@shdfnd@physx@@@?$Array@VPair@@V?$ReflectionAllocator@VPair@@@shdfnd@physx@@@shdfnd@physx@@IEAAXAEBV012@@Z 000000018001a990 f i ConvexPolygonsBuilder.obj
 0001:00019a10       ??0ConvexPolygonsBuilder@physx@@QEAA@PEAUConvexHullData@Gu@1@_N@Z 000000018001aa10 f   ConvexPolygonsBuilder.obj
 0001:00019a30       ??1ConvexPolygonsBuilder@physx@@QEAA@XZ 000000018001aa30 f   ConvexPolygonsBuilder.obj
 0001:0001a270       ?allocate@?$Array@VPair@@V?$ReflectionAllocator@VPair@@@shdfnd@physx@@@shdfnd@physx@@IEAAPEAVPair@@I@Z 000000018001b270 f i ConvexPolygonsBuilder.obj
 0001:0001aad0       ?computeHullPolygons@ConvexPolygonsBuilder@physx@@QEAA_NAEBIPEBVPxVec3@2@0PEBI@Z 000000018001bad0 f   ConvexPolygonsBuilder.obj
 0001:0001c100       ?createPolygonData@ConvexPolygonsBuilder@physx@@AEAA_NXZ 000000018001d100 f   ConvexPolygonsBuilder.obj
 0001:0001cad0       ?createTrianglesFromPolygons@ConvexPolygonsBuilder@physx@@AEAA_NXZ 000000018001dad0 f   ConvexPolygonsBuilder.obj
 0001:0001e0e0       ?growAndPushBack@?$Array@VPair@@V?$ReflectionAllocator@VPair@@@shdfnd@physx@@@shdfnd@physx@@IEAAAEAVPair@@AEBV4@@Z 000000018001f0e0 f i ConvexPolygonsBuilder.obj
 0001:0001e1b0       ??0QuickHull@local@@QEAA@AEBUPxCookingParams@physx@@AEBVPxConvexMeshDesc@3@@Z 000000018001f1b0 f   QuickHullConvexHullLib.obj
 0001:0001e260       ??0QuickHullConvexHullLib@physx@@QEAA@AEBVPxConvexMeshDesc@1@AEBUPxCookingParams@1@@Z 000000018001f260 f   QuickHullConvexHullLib.obj
 0001:0001e350       ??1?$MemBlock@UQuickHullFace@local@@$00@local@@QEAA@XZ 000000018001f350 f i QuickHullConvexHullLib.obj
 0001:0001e350       ??1?$MemBlock@UQuickHullHalfEdge@local@@$0A@@local@@QEAA@XZ 000000018001f350 f i QuickHullConvexHullLib.obj
 0001:0001e3f0       ??1QuickHull@local@@QEAA@XZ 000000018001f3f0 f   QuickHullConvexHullLib.obj
 0001:0001e550       ??_GConvexHull@physx@@QEAAPEAXI@Z 000000018001f550 f i QuickHullConvexHullLib.obj
 0001:0001e640       ??_EQuickHullConvexHullLib@physx@@UEAAPEAXI@Z 000000018001f640 f i QuickHullConvexHullLib.obj
 0001:0001e640       ??_GQuickHullConvexHullLib@physx@@UEAAPEAXI@Z 000000018001f640 f i QuickHullConvexHullLib.obj
 0001:0001e750       ?addPointToHull@QuickHull@local@@IEAA_NPEBUQuickHullVertex@2@AEAUQuickHullFace@2@AEA_N@Z 000000018001f750 f   QuickHullConvexHullLib.obj
 0001:0001ea20       ?addSimplex@QuickHull@local@@IEAAXPEAUQuickHullVertex@2@_N@Z 000000018001fa20 f   QuickHullConvexHullLib.obj
 0001:0001ef10       ?allocate@?$Array@PEAUQuickHullFace@local@@V?$ReflectionAllocator@PEAUQuickHullFace@local@@@shdfnd@physx@@@shdfnd@physx@@IEAAPEAPEAUQuickHullFace@local@@I@Z 000000018001ff10 f i QuickHullConvexHullLib.obj
 0001:0001efb0       ?allocate@?$Array@PEAUQuickHullHalfEdge@local@@V?$ReflectionAllocator@PEAUQuickHullHalfEdge@local@@@shdfnd@physx@@@shdfnd@physx@@IEAAPEAPEAUQuickHullHalfEdge@local@@I@Z 000000018001ffb0 f i QuickHullConvexHullLib.obj
 0001:0001f050       ?allocate@?$Array@PEAUQuickHullVertex@local@@V?$ReflectionAllocator@PEAUQuickHullVertex@local@@@shdfnd@physx@@@shdfnd@physx@@IEAAPEAPEAUQuickHullVertex@local@@I@Z 0000000180020050 f i QuickHullConvexHullLib.obj
 0001:0001f0f0       ?allocate@?$Array@UExpandPoint@local@@V?$ReflectionAllocator@UExpandPoint@local@@@shdfnd@physx@@@shdfnd@physx@@IEAAPEAUExpandPoint@local@@I@Z 00000001800200f0 f i QuickHullConvexHullLib.obj
 0001:0001f190       ?buildHull@QuickHull@local@@QEAA?AW4Enum@QuickHullResult@2@XZ 0000000180020190 f   QuickHullConvexHullLib.obj
 0001:0001f3b0       ?calculateHorizon@QuickHull@local@@IEAAXAEBVPxVec3@physx@@PEAUQuickHullHalfEdge@2@AEAUQuickHullFace@2@AEAV?$Array@PEAUQuickHullHalfEdge@local@@V?$ReflectionAllocator@PEAUQuickHullHalfEdge@local@@@shdfnd@physx@@@shdfnd@4@AEAV?$Array@PEAUQuickHullFace@local@@V?$ReflectionAllocator@PEAUQuickHullFace@local@@@shdfnd@physx@@@84@@Z 00000001800203b0 f   QuickHullConvexHullLib.obj
 0001:0001f560       ?canMergeFaces@QuickHull@local@@IEAA_NAEBUQuickHullHalfEdge@2@@Z 0000000180020560 f   QuickHullConvexHullLib.obj
 0001:0001fd80       ?cleanupForSimplex@QuickHullConvexHullLib@physx@@IEAA_NPEAVPxVec3@2@IPEAUQuickHullVertex@local@@1AEAM2@Z 0000000180020d80 f   QuickHullConvexHullLib.obj
 0001:00020ce0       ?computeMinMaxVerts@QuickHull@local@@IEAAXXZ 0000000180021ce0 f   QuickHullConvexHullLib.obj
 0001:000210c0       ?connectHalfEdges@QuickHullFace@local@@AEAAPEAU12@PEAUQuickHullHalfEdge@2@0@Z 00000001800220c0 f   QuickHullConvexHullLib.obj
 0001:00021430       ?copy@?$Array@UExpandPoint@local@@V?$ReflectionAllocator@UExpandPoint@local@@@shdfnd@physx@@@shdfnd@physx@@KAXPEAUExpandPoint@local@@0PEBU45@@Z 0000000180022430 f i QuickHullConvexHullLib.obj
 0001:00021680       ?createConvexHull@QuickHullConvexHullLib@physx@@UEAA?AW4Enum@PxConvexMeshCookingResult@2@XZ 0000000180022680 f   QuickHullConvexHullLib.obj
 0001:00021aa0       ?createEdgeList@QuickHullConvexHullLib@physx@@UEAA_NIPEBEPEAPEAEPEAPEAG2@Z 0000000180022aa0 f   QuickHullConvexHullLib.obj
 0001:00021d00       ?createTriangle@QuickHull@local@@IEAAPEAUQuickHullFace@2@AEBUQuickHullVertex@2@00@Z 0000000180022d00 f   QuickHullConvexHullLib.obj
 0001:000220d0       ?doAdjacentMerge@QuickHull@local@@IEAA_NAEAUQuickHullFace@2@_NAEA_N@Z 00000001800230d0 f   QuickHullConvexHullLib.obj
 0001:00022420       ?expandHull@QuickHullConvexHullLib@physx@@IEAA?AW4Enum@PxConvexMeshCookingResult@2@XZ 0000000180023420 f   QuickHullConvexHullLib.obj
 0001:00022d60       ?expandHullOBB@QuickHullConvexHullLib@physx@@IEAA?AW4Enum@PxConvexMeshCookingResult@2@XZ 0000000180023d60 f   QuickHullConvexHullLib.obj
 0001:000231a0       ?fillConvexMeshDesc@QuickHullConvexHullLib@physx@@UEAAXAEAVPxConvexMeshDesc@2@@Z 00000001800241a0 f   QuickHullConvexHullLib.obj
 0001:000231f0       ?fillConvexMeshDescFromCroppedHull@QuickHullConvexHullLib@physx@@IEAAXAEAVPxConvexMeshDesc@2@@Z 00000001800241f0 f   QuickHullConvexHullLib.obj
 0001:000233e0       ?fillConvexMeshDescFromQuickHull@QuickHullConvexHullLib@physx@@IEAAXAEAVPxConvexMeshDesc@2@@Z 00000001800243e0 f   QuickHullConvexHullLib.obj
 0001:00023760       ?findSimplex@QuickHull@local@@IEAA_NXZ 0000000180024760 f   QuickHullConvexHullLib.obj
 0001:000243a0       ?getFreeItem@?$MemBlock@UQuickHullFace@local@@$00@local@@QEAAPEAUQuickHullFace@2@XZ 00000001800253a0 f i QuickHullConvexHullLib.obj
 0001:000244e0       ?getFreeItem@?$MemBlock@UQuickHullHalfEdge@local@@$0A@@local@@QEAAPEAUQuickHullHalfEdge@2@XZ 00000001800254e0 f i QuickHullConvexHullLib.obj
 0001:000245b0       ?growAndPushBack@?$Array@PEAUQuickHullFace@local@@V?$ReflectionAllocator@PEAUQuickHullFace@local@@@shdfnd@physx@@@shdfnd@physx@@IEAAAEAPEAUQuickHullFace@local@@AEBQEAU45@@Z 00000001800255b0 f i QuickHullConvexHullLib.obj
 0001:00024680       ?growAndPushBack@?$Array@PEAUQuickHullHalfEdge@local@@V?$ReflectionAllocator@PEAUQuickHullHalfEdge@local@@@shdfnd@physx@@@shdfnd@physx@@IEAAAEAPEAUQuickHullHalfEdge@local@@AEBQEAU45@@Z 0000000180025680 f i QuickHullConvexHullLib.obj
 0001:00024750       ?growAndPushBack@?$Array@PEAUQuickHullVertex@local@@V?$ReflectionAllocator@PEAUQuickHullVertex@local@@@shdfnd@physx@@@shdfnd@physx@@IEAAAEAPEAUQuickHullVertex@local@@AEBQEAU45@@Z 0000000180025750 f i QuickHullConvexHullLib.obj
 0001:00024820       ?growAndPushBack@?$Array@UExpandPoint@local@@V?$ReflectionAllocator@UExpandPoint@local@@@shdfnd@physx@@@shdfnd@physx@@IEAAAEAUExpandPoint@local@@AEBU45@@Z 0000000180025820 f i QuickHullConvexHullLib.obj
 0001:00024940       ?init@?$MemBlock@UQuickHullFace@local@@$00@local@@QEAAXI@Z 0000000180025940 f i QuickHullConvexHullLib.obj
 0001:00024a30       ?init@?$MemBlock@UQuickHullHalfEdge@local@@$0A@@local@@QEAAXI@Z 0000000180025a30 f i QuickHullConvexHullLib.obj
 0001:00024ad0       ?mergeAdjacentFace@QuickHullFace@local@@QEAA_NPEAUQuickHullHalfEdge@2@AEAV?$Array@PEAUQuickHullFace@local@@V?$ReflectionAllocator@PEAUQuickHullFace@local@@@shdfnd@physx@@@shdfnd@physx@@@Z 0000000180025ad0 f   QuickHullConvexHullLib.obj
 0001:00024f20       ?nextPointToAdd@QuickHull@local@@IEAAPEAUQuickHullVertex@2@AEAPEAUQuickHullFace@2@@Z 0000000180025f20 f   QuickHullConvexHullLib.obj
 0001:000250a0       ?parseInputVertices@QuickHull@local@@QEAAXPEBVPxVec3@physx@@I@Z 00000001800260a0 f   QuickHullConvexHullLib.obj
 0001:00025220       ?postMergeHull@QuickHull@local@@IEAAXXZ 0000000180026220 f   QuickHullConvexHullLib.obj
 0001:00025480       ?preallocate@QuickHull@local@@QEAAXI@Z 0000000180026480 f   QuickHullConvexHullLib.obj
 0001:000255c0       ?recreate@?$Array@PEAUQuickHullFace@local@@V?$ReflectionAllocator@PEAUQuickHullFace@local@@@shdfnd@physx@@@shdfnd@physx@@IEAAXI@Z 00000001800265c0 f i QuickHullConvexHullLib.obj
 0001:00025660       ?recreate@?$Array@PEAUQuickHullHalfEdge@local@@V?$ReflectionAllocator@PEAUQuickHullHalfEdge@local@@@shdfnd@physx@@@shdfnd@physx@@IEAAXI@Z 0000000180026660 f i QuickHullConvexHullLib.obj
 0001:00025700       ?recreate@?$Array@PEAUQuickHullVertex@local@@V?$ReflectionAllocator@PEAUQuickHullVertex@local@@@shdfnd@physx@@@shdfnd@physx@@IEAAXI@Z 0000000180026700 f i QuickHullConvexHullLib.obj
 0001:000257a0       ?recreate@?$Array@UExpandPoint@local@@V?$ReflectionAllocator@UExpandPoint@local@@@shdfnd@physx@@@shdfnd@physx@@IEAAXI@Z 00000001800267a0 f i QuickHullConvexHullLib.obj
 0001:00025820       ?resolveUnclaimedPoints@QuickHull@local@@IEAAXAEBV?$Array@PEAUQuickHullFace@local@@V?$ReflectionAllocator@PEAUQuickHullFace@local@@@shdfnd@physx@@@shdfnd@physx@@@Z 0000000180026820 f   QuickHullConvexHullLib.obj
 0001:00026590       ?computeVolumeIntegralsEberly@physx@@YA_NAEBVPxConvexMeshDesc@1@MAEAUPxIntegrals@1@AEBVPxVec3@1@@Z 0000000180027590 f   VolumeIntegration.obj
 0001:000265d0       ?computeVolumeIntegralsEberlySIMD@physx@@YA_NAEBVPxConvexMeshDesc@1@MAEAUPxIntegrals@1@AEBVPxVec3@1@@Z 00000001800275d0 f   VolumeIntegration.obj
 0001:00026c30       ?cookingDelayHook@@YAP6A_JXZIPEAUDelayLoadInfo@@@Z 0000000180027c30 f   WindowsCookingDelayLoadHook.obj
 0001:00026d10       PxSetPhysXCookingDelayLoadHook 0000000180027d10 f   WindowsCookingDelayLoadHook.obj
 0001:00026d18       ??0RadixSortBuffered@Cm@physx@@QEAA@XZ 0000000180027d18 f   PhysXCommon_64:PhysXCommon_64.dll
 0001:00026d1e       __tailMerge_physxcommon_64_dll 0000000180027d1e     PhysXCommon_64:PhysXCommon_64.dll
 0001:00026d97       __imp_load_??0RadixSortBuffered@Cm@physx@@QEAA@XZ 0000000180027d97 f   PhysXCommon_64:PhysXCommon_64.dll
 0001:00026da3       ??1RadixSortBuffered@Cm@physx@@UEAA@XZ 0000000180027da3 f   PhysXCommon_64:PhysXCommon_64.dll
 0001:00026da9       __imp_load_??1RadixSortBuffered@Cm@physx@@UEAA@XZ 0000000180027da9 f   PhysXCommon_64:PhysXCommon_64.dll
 0001:00026db5       ?Sort@RadixSortBuffered@Cm@physx@@QEAAAEAV123@PEBIIW4RadixHint@23@@Z 0000000180027db5 f   PhysXCommon_64:PhysXCommon_64.dll
 0001:00026dbb       __imp_load_?Sort@RadixSortBuffered@Cm@physx@@QEAAAEAV123@PEBIIW4RadixHint@23@@Z 0000000180027dbb f   PhysXCommon_64:PhysXCommon_64.dll
 0001:00026dc7       ??0HeightField@Gu@physx@@QEAA@PEAVGuMeshFactory@2@@Z 0000000180027dc7 f   PhysXCommon_64:PhysXCommon_64.dll
 0001:00026dcd       __imp_load_??0HeightField@Gu@physx@@QEAA@PEAVGuMeshFactory@2@@Z 0000000180027dcd f   PhysXCommon_64:PhysXCommon_64.dll
 0001:00026dd9       ?loadFromDesc@HeightField@Gu@physx@@QEAA_NAEBVPxHeightFieldDesc@3@@Z 0000000180027dd9 f   PhysXCommon_64:PhysXCommon_64.dll
 0001:00026ddf       __imp_load_?loadFromDesc@HeightField@Gu@physx@@QEAA_NAEBVPxHeightFieldDesc@3@@Z 0000000180027ddf f   PhysXCommon_64:PhysXCommon_64.dll
 0001:00026deb       ?computeCellCoordinates@HeightField@Gu@physx@@QEBAIMMAEAM0@Z 0000000180027deb f   PhysXCommon_64:PhysXCommon_64.dll
 0001:00026df1       __imp_load_?computeCellCoordinates@HeightField@Gu@physx@@QEBAIMMAEAM0@Z 0000000180027df1 f   PhysXCommon_64:PhysXCommon_64.dll
 0001:00026dfd       ?releaseMemory@HeightField@Gu@physx@@QEAAXXZ 0000000180027dfd f   PhysXCommon_64:PhysXCommon_64.dll
 0001:00026e03       __imp_load_?releaseMemory@HeightField@Gu@physx@@QEAAXXZ 0000000180027e03 f   PhysXCommon_64:PhysXCommon_64.dll
 0001:00026e0f       ??1HeightField@Gu@physx@@UEAA@XZ 0000000180027e0f f   PhysXCommon_64:PhysXCommon_64.dll
 0001:00026e15       __imp_load_??1HeightField@Gu@physx@@UEAA@XZ 0000000180027e15 f   PhysXCommon_64:PhysXCommon_64.dll
 0001:00026e21       ??0NodeAllocator@Gu@physx@@QEAA@XZ 0000000180027e21 f   PhysXCommon_64:PhysXCommon_64.dll
 0001:00026e27       __imp_load_??0NodeAllocator@Gu@physx@@QEAA@XZ 0000000180027e27 f   PhysXCommon_64:PhysXCommon_64.dll
 0001:00026e33       ??1NodeAllocator@Gu@physx@@QEAA@XZ 0000000180027e33 f   PhysXCommon_64:PhysXCommon_64.dll
 0001:00026e39       __imp_load_??1NodeAllocator@Gu@physx@@QEAA@XZ 0000000180027e39 f   PhysXCommon_64:PhysXCommon_64.dll
 0001:00026e45       ?release@NodeAllocator@Gu@physx@@QEAAXXZ 0000000180027e45 f   PhysXCommon_64:PhysXCommon_64.dll
 0001:00026e4b       __imp_load_?release@NodeAllocator@Gu@physx@@QEAAXXZ 0000000180027e4b f   PhysXCommon_64:PhysXCommon_64.dll
 0001:00026e57       ?buildAABBTree@Gu@physx@@YA_NAEAVAABBTreeBuildParams@12@AEAVNodeAllocator@12@AEAUBuildStats@12@AEAPEAI@Z 0000000180027e57 f   PhysXCommon_64:PhysXCommon_64.dll
 0001:00026e5d       __imp_load_?buildAABBTree@Gu@physx@@YA_NAEAVAABBTreeBuildParams@12@AEAVNodeAllocator@12@AEAUBuildStats@12@AEAPEAI@Z 0000000180027e5d f   PhysXCommon_64:PhysXCommon_64.dll
 0001:00026e69       ?writeDword@physx@@YAXI_NAEAVPxOutputStream@1@@Z 0000000180027e69 f   PhysXCommon_64:PhysXCommon_64.dll
 0001:00026e6f       __imp_load_?writeDword@physx@@YAXI_NAEAVPxOutputStream@1@@Z 0000000180027e6f f   PhysXCommon_64:PhysXCommon_64.dll
 0001:00026e7b       ?writeFloatBuffer@physx@@YAXPEBMI_NAEAVPxOutputStream@1@@Z 0000000180027e7b f   PhysXCommon_64:PhysXCommon_64.dll
 0001:00026e81       __imp_load_?writeFloatBuffer@physx@@YAXPEBMI_NAEAVPxOutputStream@1@@Z 0000000180027e81 f   PhysXCommon_64:PhysXCommon_64.dll
 0001:00026e8d       ?writeHeader@physx@@YA_NCCCCI_NAEAVPxOutputStream@1@@Z 0000000180027e8d f   PhysXCommon_64:PhysXCommon_64.dll
 0001:00026e93       __imp_load_?writeHeader@physx@@YA_NCCCCI_NAEAVPxOutputStream@1@@Z 0000000180027e93 f   PhysXCommon_64:PhysXCommon_64.dll
 0001:00026e9f       ?writeWord@physx@@YAXG_NAEAVPxOutputStream@1@@Z 0000000180027e9f f   PhysXCommon_64:PhysXCommon_64.dll
 0001:00026ea5       __imp_load_?writeWord@physx@@YAXG_NAEAVPxOutputStream@1@@Z 0000000180027ea5 f   PhysXCommon_64:PhysXCommon_64.dll
 0001:00026eb1       ?writeFloat@physx@@YAXM_NAEAVPxOutputStream@1@@Z 0000000180027eb1 f   PhysXCommon_64:PhysXCommon_64.dll
 0001:00026eb7       __imp_load_?writeFloat@physx@@YAXM_NAEAVPxOutputStream@1@@Z 0000000180027eb7 f   PhysXCommon_64:PhysXCommon_64.dll
 0001:00026ec3       ?computeBoundsAroundVertices@Gu@physx@@YAXAEAVPxBounds3@2@IPEIBVPxVec3@2@@Z 0000000180027ec3 f   PhysXCommon_64:PhysXCommon_64.dll
 0001:00026ec9       __imp_load_?computeBoundsAroundVertices@Gu@physx@@YAXAEAVPxBounds3@2@IPEIBVPxVec3@2@@Z 0000000180027ec9 f   PhysXCommon_64:PhysXCommon_64.dll
 0001:00026ed5       ??0SourceMesh@Gu@physx@@QEAA@XZ 0000000180027ed5 f   PhysXCommon_64:PhysXCommon_64.dll
 0001:00026edb       __imp_load_??0SourceMesh@Gu@physx@@QEAA@XZ 0000000180027edb f   PhysXCommon_64:PhysXCommon_64.dll
 0001:00026ee7       ??1SourceMesh@Gu@physx@@QEAA@XZ 0000000180027ee7 f   PhysXCommon_64:PhysXCommon_64.dll
 0001:00026eed       __imp_load_??1SourceMesh@Gu@physx@@QEAA@XZ 0000000180027eed f   PhysXCommon_64:PhysXCommon_64.dll
 0001:00026ef9       ??0BV4Tree@Gu@physx@@QEAA@XZ 0000000180027ef9 f   PhysXCommon_64:PhysXCommon_64.dll
 0001:00026eff       __imp_load_??0BV4Tree@Gu@physx@@QEAA@XZ 0000000180027eff f   PhysXCommon_64:PhysXCommon_64.dll
 0001:00026f0b       ??1BV4Tree@Gu@physx@@QEAA@XZ 0000000180027f0b f   PhysXCommon_64:PhysXCommon_64.dll
 0001:00026f11       __imp_load_??1BV4Tree@Gu@physx@@QEAA@XZ 0000000180027f11 f   PhysXCommon_64:PhysXCommon_64.dll
 0001:00026f1d       ??0BV32Tree@Gu@physx@@QEAA@XZ 0000000180027f1d f   PhysXCommon_64:PhysXCommon_64.dll
 0001:00026f23       __imp_load_??0BV32Tree@Gu@physx@@QEAA@XZ 0000000180027f23 f   PhysXCommon_64:PhysXCommon_64.dll
 0001:00026f2f       ??1BV32Tree@Gu@physx@@QEAA@XZ 0000000180027f2f f   PhysXCommon_64:PhysXCommon_64.dll
 0001:00026f35       __imp_load_??1BV32Tree@Gu@physx@@QEAA@XZ 0000000180027f35 f   PhysXCommon_64:PhysXCommon_64.dll
 0001:00026f41       ?writeWordBuffer@physx@@YAXPEBGI_NAEAVPxOutputStream@1@@Z 0000000180027f41 f   PhysXCommon_64:PhysXCommon_64.dll
 0001:00026f47       __imp_load_?writeWordBuffer@physx@@YAXPEBGI_NAEAVPxOutputStream@1@@Z 0000000180027f47 f   PhysXCommon_64:PhysXCommon_64.dll
 0001:00026f53       ?computeMaxIndex@physx@@YAIPEBII@Z 0000000180027f53 f   PhysXCommon_64:PhysXCommon_64.dll
 0001:00026f59       __imp_load_?computeMaxIndex@physx@@YAIPEBII@Z 0000000180027f59 f   PhysXCommon_64:PhysXCommon_64.dll
 0001:00026f65       ?storeIndices@physx@@YAXIIPEBIAEAVPxOutputStream@1@_N@Z 0000000180027f65 f   PhysXCommon_64:PhysXCommon_64.dll
 0001:00026f6b       __imp_load_?storeIndices@physx@@YAXIIPEBIAEAVPxOutputStream@1@_N@Z 0000000180027f6b f   PhysXCommon_64:PhysXCommon_64.dll
 0001:00026f77       ?BuildBV4Ex@Gu@physx@@YA_NAEAVBV4Tree@12@AEAVSourceMesh@12@MI@Z 0000000180027f77 f   PhysXCommon_64:PhysXCommon_64.dll
 0001:00026f7d       __imp_load_?BuildBV4Ex@Gu@physx@@YA_NAEAVBV4Tree@12@AEAVSourceMesh@12@MI@Z 0000000180027f7d f   PhysXCommon_64:PhysXCommon_64.dll
 0001:00026f89       ?BuildBV32Ex@Gu@physx@@YA_NAEAVBV32Tree@12@AEAVSourceMesh@12@MI@Z 0000000180027f89 f   PhysXCommon_64:PhysXCommon_64.dll
 0001:00026f8f       __imp_load_?BuildBV32Ex@Gu@physx@@YA_NAEAVBV32Tree@12@AEAVSourceMesh@12@MI@Z 0000000180027f8f f   PhysXCommon_64:PhysXCommon_64.dll
 0001:00026f9b       ?computeMaxIndex@physx@@YAGPEBGI@Z 0000000180027f9b f   PhysXCommon_64:PhysXCommon_64.dll
 0001:00026fa1       __imp_load_?computeMaxIndex@physx@@YAGPEBGI@Z 0000000180027fa1 f   PhysXCommon_64:PhysXCommon_64.dll
 0001:00026fad       ?WriteHeader@Gu@physx@@YA_NEEEEI_NAEAVPxOutputStream@2@@Z 0000000180027fad f   PhysXCommon_64:PhysXCommon_64.dll
 0001:00026fb3       __imp_load_?WriteHeader@Gu@physx@@YA_NEEEEI_NAEAVPxOutputStream@2@@Z 0000000180027fb3 f   PhysXCommon_64:PhysXCommon_64.dll
 0001:00026fbf       ?StoreIndices@Gu@physx@@YAXGIPEBGAEAVPxOutputStream@2@_N@Z 0000000180027fbf f   PhysXCommon_64:PhysXCommon_64.dll
 0001:00026fc5       __imp_load_?StoreIndices@Gu@physx@@YAXGIPEBGAEAVPxOutputStream@2@_N@Z 0000000180027fc5 f   PhysXCommon_64:PhysXCommon_64.dll
 0001:00026fd1       ?CreateOffsets@BigConvexData@physx@@IEAAXXZ 0000000180027fd1 f   PhysXCommon_64:PhysXCommon_64.dll
 0001:00026fd7       __imp_load_?CreateOffsets@BigConvexData@physx@@IEAAXXZ 0000000180027fd7 f   PhysXCommon_64:PhysXCommon_64.dll
 0001:00026fe3       ?computeOBBPoints@Gu@physx@@YAXPEIAVPxVec3@2@AEBV32@1111@Z 0000000180027fe3 f   PhysXCommon_64:PhysXCommon_64.dll
 0001:00026fe9       __imp_load_?computeOBBPoints@Gu@physx@@YAXPEIAVPxVec3@2@AEBV32@1111@Z 0000000180027fe9 f   PhysXCommon_64:PhysXCommon_64.dll
 0001:00026ff5       ??0BigConvexData@physx@@QEAA@XZ 0000000180027ff5 f   PhysXCommon_64:PhysXCommon_64.dll
 0001:00026ffb       __imp_load_??0BigConvexData@physx@@QEAA@XZ 0000000180027ffb f   PhysXCommon_64:PhysXCommon_64.dll
 0001:00027007       ??1BigConvexData@physx@@QEAA@XZ 0000000180028007 f   PhysXCommon_64:PhysXCommon_64.dll
 0001:0002700d       __imp_load_??1BigConvexData@physx@@QEAA@XZ 000000018002800d f   PhysXCommon_64:PhysXCommon_64.dll
 0001:00027019       PxGetFoundation            0000000180028019 f   PhysXFoundation_64:PhysXFoundation_64.dll
 0001:0002701f       __tailMerge_physxfoundation_64_dll 000000018002801f     PhysXFoundation_64:PhysXFoundation_64.dll
 0001:00027098       __imp_load_PxGetFoundation 0000000180028098 f   PhysXFoundation_64:PhysXFoundation_64.dll
 0001:000270a4       ?getAllocator@shdfnd@physx@@YAAEAVPxAllocatorCallback@2@XZ 00000001800280a4 f   PhysXFoundation_64:PhysXFoundation_64.dll
 0001:000270aa       __imp_load_?getAllocator@shdfnd@physx@@YAAEAVPxAllocatorCallback@2@XZ 00000001800280aa f   PhysXFoundation_64:PhysXFoundation_64.dll
 0001:000270b6       ?getInstance@Foundation@shdfnd@physx@@SAAEAV123@XZ 00000001800280b6 f   PhysXFoundation_64:PhysXFoundation_64.dll
 0001:000270bc       __imp_load_?getInstance@Foundation@shdfnd@physx@@SAAEAV123@XZ 00000001800280bc f   PhysXFoundation_64:PhysXFoundation_64.dll
 0001:000270c8       ?error@Foundation@shdfnd@physx@@QEAAXW4Enum@PxErrorCode@3@PEBDH1ZZ 00000001800280c8 f   PhysXFoundation_64:PhysXFoundation_64.dll
 0001:000270ce       __imp_load_?error@Foundation@shdfnd@physx@@QEAAXW4Enum@PxErrorCode@3@PEBDH1ZZ 00000001800280ce f   PhysXFoundation_64:PhysXFoundation_64.dll
 0001:000270da       ?incRefCount@Foundation@shdfnd@physx@@SAXXZ 00000001800280da f   PhysXFoundation_64:PhysXFoundation_64.dll
 0001:000270e0       __imp_load_?incRefCount@Foundation@shdfnd@physx@@SAXXZ 00000001800280e0 f   PhysXFoundation_64:PhysXFoundation_64.dll
 0001:000270ec       ?decRefCount@Foundation@shdfnd@physx@@SAXXZ 00000001800280ec f   PhysXFoundation_64:PhysXFoundation_64.dll
 0001:000270f2       __imp_load_?decRefCount@Foundation@shdfnd@physx@@SAXXZ 00000001800280f2 f   PhysXFoundation_64:PhysXFoundation_64.dll
 0001:000270fe       ??0FPUGuard@shdfnd@physx@@QEAA@XZ 00000001800280fe f   PhysXFoundation_64:PhysXFoundation_64.dll
 0001:00027104       __imp_load_??0FPUGuard@shdfnd@physx@@QEAA@XZ 0000000180028104 f   PhysXFoundation_64:PhysXFoundation_64.dll
 0001:00027110       ??1FPUGuard@shdfnd@physx@@QEAA@XZ 0000000180028110 f   PhysXFoundation_64:PhysXFoundation_64.dll
 0001:00027116       __imp_load_??1FPUGuard@shdfnd@physx@@QEAA@XZ 0000000180028116 f   PhysXFoundation_64:PhysXFoundation_64.dll
 0001:00027122       ?allocate@TempAllocator@shdfnd@physx@@QEAAPEAX_KPEBDH@Z 0000000180028122 f   PhysXFoundation_64:PhysXFoundation_64.dll
 0001:00027128       __imp_load_?allocate@TempAllocator@shdfnd@physx@@QEAAPEAX_KPEBDH@Z 0000000180028128 f   PhysXFoundation_64:PhysXFoundation_64.dll
 0001:00027134       ?deallocate@TempAllocator@shdfnd@physx@@QEAAXPEAX@Z 0000000180028134 f   PhysXFoundation_64:PhysXFoundation_64.dll
 0001:0002713a       __imp_load_?deallocate@TempAllocator@shdfnd@physx@@QEAAXPEAX@Z 000000018002813a f   PhysXFoundation_64:PhysXFoundation_64.dll
 0001:00027146       ?PxDiagonalize@physx@@YA?AVPxVec3@1@AEBVPxMat33@1@AEAVPxQuat@1@@Z 0000000180028146 f   PhysXFoundation_64:PhysXFoundation_64.dll
 0001:0002714c       __imp_load_?PxDiagonalize@physx@@YA?AVPxVec3@1@AEBVPxMat33@1@AEAVPxQuat@1@@Z 000000018002814c f   PhysXFoundation_64:PhysXFoundation_64.dll
 0001:00027244       ?DloadAcquireSectionWriteAccess@@YAXXZ 0000000180028244 f i Delayimp:delayhlp.obj
 0001:00027300       ?DloadGetSRWLockFunctionPointers@@YAEXZ 0000000180028300 f i Delayimp:delayhlp.obj
 0001:000273a0       ?DloadMakePermanentImageCommit@@YAXPEAX_K@Z 00000001800283a0 f i Delayimp:delayhlp.obj
 0001:00027438       ?DloadObtainSection@@YAPEAXPEAK0@Z 0000000180028438 f i Delayimp:delayhlp.obj
 0001:000274d4       ?DloadProtectSection@@YAXPEAX_KKPEAK@Z 00000001800284d4 f i Delayimp:delayhlp.obj
 0001:000275cc       ?DloadReleaseSectionWriteAccess@@YAXXZ 00000001800285cc f i Delayimp:delayhlp.obj
 0001:00027678       __delayLoadHelper2         0000000180028678 f   Delayimp:delayhlp.obj
 0001:00027974       ??3@YAXPEAX_K@Z            0000000180028974 f   MSVCRT:delete_scalar_size.obj
 0001:00027974       ??_V@YAXPEAX@Z             0000000180028974 f   MSVCRT:delete_array.obj
 0001:0002797c       ??_Etype_info@@UEAAPEAXI@Z 000000018002897c f i MSVCRT:std_type_info_static.obj
 0001:0002797c       ??_Gtype_info@@UEAAPEAXI@Z 000000018002897c f i MSVCRT:std_type_info_static.obj
 0001:000279a8       ?__scrt_initialize_type_info@@YAXXZ 00000001800289a8 f   MSVCRT:tncleanup.obj
 0001:000279b8       ?__scrt_uninitialize_type_info@@YAXXZ 00000001800289b8 f   MSVCRT:tncleanup.obj
 0001:000279e0       __chkstk                   00000001800289e0 f   MSVCRT:chkstk.obj
 0001:000279e0       _alloca_probe              00000001800289e0 f   MSVCRT:chkstk.obj
 0001:00027a30       ??3@YAXPEAX@Z              0000000180028a30 f   MSVCRT:delete_scalar.obj
 0001:00027a40       __vdecl_sinf4              0000000180028a40 f   MSVCRT:svml_ssinf4_dispatch.obj
 0001:00027a60       __libm_sse2_sincosf_       0000000180028a60 f   MSVCRT:svml_ssinf4_dispatch.obj
 0001:00027aa3       __libm_sse2_sincosf4_      0000000180028aa3 f   MSVCRT:svml_ssinf4_dispatch.obj
 0001:00027dc4       _DllMainCRTStartup         0000000180028dc4 f   MSVCRT:dll_dllmain.obj
 0001:00027e04       __isa_available_init       0000000180028e04 f   MSVCRT:cpu_disp.obj
 0001:000280a0       __sse2_sinf4@@16           00000001800290a0 f   MSVCRT:svml_ssinf4_sse2.obj
 0001:000289e0       __sse4_sinf4@@16           00000001800299e0 f   MSVCRT:svml_ssinf4_sse4.obj
 0001:00029154       __security_init_cookie     000000018002a154 f   MSVCRT:gs_support.obj
 0001:00029204       DllMain                    000000018002a204 f   MSVCRT:dll_dllmain_stub.obj
 0001:00029228       __local_stdio_printf_options 000000018002a228 f i MSVCRT:default_local_stdio_options.obj
 0001:00029230       __local_stdio_scanf_options 000000018002a230 f i MSVCRT:default_local_stdio_options.obj
 0001:00029238       __scrt_initialize_default_local_stdio_options 000000018002a238 f   MSVCRT:default_local_stdio_options.obj
 0001:00029254       __scrt_acquire_startup_lock 000000018002a254 f   MSVCRT:utility.obj
 0001:00029290       __scrt_dllmain_after_initialize_c 000000018002a290 f   MSVCRT:utility.obj
 0001:000292c4       __scrt_dllmain_before_initialize_c 000000018002a2c4 f   MSVCRT:utility.obj
 0001:000292dc       __scrt_dllmain_crt_thread_attach 000000018002a2dc f   MSVCRT:utility.obj
 0001:00029304       __scrt_dllmain_crt_thread_detach 000000018002a304 f   MSVCRT:utility.obj
 0001:0002931c       __scrt_dllmain_exception_filter 000000018002a31c f   MSVCRT:utility.obj
 0001:0002937c       __scrt_dllmain_uninitialize_c 000000018002a37c f   MSVCRT:utility.obj
 0001:000293ac       __scrt_dllmain_uninitialize_critical 000000018002a3ac f   MSVCRT:utility.obj
 0001:000293c0       __scrt_initialize_crt      000000018002a3c0 f   MSVCRT:utility.obj
 0001:000293fc       __scrt_initialize_onexit_tables 000000018002a3fc f   MSVCRT:utility.obj
 0001:00029488       __scrt_is_nonwritable_in_current_image 000000018002a488 f   MSVCRT:utility.obj
 0001:00029520       __scrt_release_startup_lock 000000018002a520 f   MSVCRT:utility.obj
 0001:00029544       __scrt_uninitialize_crt    000000018002a544 f   MSVCRT:utility.obj
 0001:00029570       __scrt_get_dyn_tls_init_callback 000000018002a570 f   MSVCRT:dyn_tls_init.obj
 0001:00029578       __crt_debugger_hook        000000018002a578 f   MSVCRT:utility_desktop.obj
 0001:00029584       __scrt_fastfail            000000018002a584 f   MSVCRT:utility_desktop.obj
 0001:000296d0       _RTC_Initialize            000000018002a6d0 f   MSVCRT:initsect.obj
 0001:0002970c       _RTC_Terminate             000000018002a70c f   MSVCRT:initsect.obj
 0001:00029750       __common_ssin_cout_rare    000000018002a750 f   MSVCRT:svml_s_sin_cout.obj
 0001:000297c0       __scrt_is_ucrt_dll_in_use  000000018002a7c0 f   MSVCRT:ucrt_detection.obj
 0001:000297cc       _purecall                  000000018002a7cc f   vcruntime:VCRUNTIME140.dll
 0001:000297d2       __std_type_info_name       000000018002a7d2 f   vcruntime:VCRUNTIME140.dll
 0001:000297d8       memset                     000000018002a7d8 f   vcruntime:VCRUNTIME140.dll
 0001:000297de       memcpy                     000000018002a7de f   vcruntime:VCRUNTIME140.dll
 0001:000297e4       strstr                     000000018002a7e4 f   vcruntime:VCRUNTIME140.dll
 0001:000297ea       __std_type_info_destroy_list 000000018002a7ea f   vcruntime:VCRUNTIME140.dll
 0001:000297f0       __C_specific_handler       000000018002a7f0 f   vcruntime:VCRUNTIME140.dll
 0001:000297f6       strcmp                     000000018002a7f6 f   ucrt:api-ms-win-crt-string-l1-1-0.dll
 0001:000297fc       atan2f                     000000018002a7fc f   ucrt:api-ms-win-crt-math-l1-1-0.dll
 0001:00029802       free                       000000018002a802 f   ucrt:api-ms-win-crt-heap-l1-1-0.dll
 0001:00029808       _initterm                  000000018002a808 f   ucrt:api-ms-win-crt-runtime-l1-1-0.dll
 0001:0002980e       _initterm_e                000000018002a80e f   ucrt:api-ms-win-crt-runtime-l1-1-0.dll
 0001:00029814       _seh_filter_dll            000000018002a814 f   ucrt:api-ms-win-crt-runtime-l1-1-0.dll
 0001:0002981a       _configure_narrow_argv     000000018002a81a f   ucrt:api-ms-win-crt-runtime-l1-1-0.dll
 0001:00029820       _initialize_narrow_environment 000000018002a820 f   ucrt:api-ms-win-crt-runtime-l1-1-0.dll
 0001:00029826       _initialize_onexit_table   000000018002a826 f   ucrt:api-ms-win-crt-runtime-l1-1-0.dll
 0001:0002982c       _execute_onexit_table      000000018002a82c f   ucrt:api-ms-win-crt-runtime-l1-1-0.dll
 0001:00029832       _cexit                     000000018002a832 f   ucrt:api-ms-win-crt-runtime-l1-1-0.dll
 0001:00029838       __acrt_initialize          000000018002a838 f   MSVCRT:ucrt_stubs.obj
 0001:00029838       __acrt_thread_attach       000000018002a838 f   MSVCRT:ucrt_stubs.obj
 0001:00029838       __acrt_thread_detach       000000018002a838 f   MSVCRT:ucrt_stubs.obj
 0001:00029838       __acrt_uninitialize        000000018002a838 f   MSVCRT:ucrt_stubs.obj
 0001:00029838       __acrt_uninitialize_critical 000000018002a838 f   MSVCRT:ucrt_stubs.obj
 0001:00029838       __scrt_stub_for_acrt_initialize 000000018002a838 f   MSVCRT:ucrt_stubs.obj
 0001:00029838       __scrt_stub_for_acrt_thread_attach 000000018002a838 f   MSVCRT:ucrt_stubs.obj
 0001:00029838       __scrt_stub_for_acrt_thread_detach 000000018002a838 f   MSVCRT:ucrt_stubs.obj
 0001:00029838       __scrt_stub_for_acrt_uninitialize 000000018002a838 f   MSVCRT:ucrt_stubs.obj
 0001:00029838       __scrt_stub_for_acrt_uninitialize_critical 000000018002a838 f   MSVCRT:ucrt_stubs.obj
 0001:00029838       __vcrt_initialize          000000018002a838 f   MSVCRT:ucrt_stubs.obj
 0001:00029838       __vcrt_thread_attach       000000018002a838 f   MSVCRT:ucrt_stubs.obj
 0001:00029838       __vcrt_thread_detach       000000018002a838 f   MSVCRT:ucrt_stubs.obj
 0001:00029838       __vcrt_uninitialize        000000018002a838 f   MSVCRT:ucrt_stubs.obj
 0001:00029838       __vcrt_uninitialize_critical 000000018002a838 f   MSVCRT:ucrt_stubs.obj
 0001:00029850       _guard_dispatch_icall_nop  000000018002a850 f   MSVCRT:guard_dispatch.obj
 0001:00029870       _guard_xfg_dispatch_icall_nop 000000018002a870 f   MSVCRT:guard_xfg_dispatch.obj
 0002:00000000       __imp_LoadLibraryA         000000018002b000     kernel32:KERNEL32.dll
 0002:00000008       __imp_SetUnhandledExceptionFilter 000000018002b008     kernel32:KERNEL32.dll
 0002:00000010       __imp_UnhandledExceptionFilter 000000018002b010     kernel32:KERNEL32.dll
 0002:00000018       __imp_IsDebuggerPresent    000000018002b018     kernel32:KERNEL32.dll
 0002:00000020       __imp_RtlVirtualUnwind     000000018002b020     kernel32:KERNEL32.dll
 0002:00000028       __imp_RtlLookupFunctionEntry 000000018002b028     kernel32:KERNEL32.dll
 0002:00000030       __imp_RtlCaptureContext    000000018002b030     kernel32:KERNEL32.dll
 0002:00000038       __imp_DisableThreadLibraryCalls 000000018002b038     kernel32:KERNEL32.dll
 0002:00000040       __imp_GetSystemTimeAsFileTime 000000018002b040     kernel32:KERNEL32.dll
 0002:00000048       __imp_GetCurrentThreadId   000000018002b048     kernel32:KERNEL32.dll
 0002:00000050       __imp_GetCurrentProcessId  000000018002b050     kernel32:KERNEL32.dll
 0002:00000058       __imp_QueryPerformanceCounter 000000018002b058     kernel32:KERNEL32.dll
 0002:00000060       __imp_InitializeSListHead  000000018002b060     kernel32:KERNEL32.dll
 0002:00000068       __imp_LoadLibraryExA       000000018002b068     kernel32:KERNEL32.dll
 0002:00000070       __imp_GetProcAddress       000000018002b070     kernel32:KERNEL32.dll
 0002:00000078       __imp_GetModuleHandleW     000000018002b078     kernel32:KERNEL32.dll
 0002:00000080       __imp_FreeLibrary          000000018002b080     kernel32:KERNEL32.dll
 0002:00000088       __imp_VirtualQuery         000000018002b088     kernel32:KERNEL32.dll
 0002:00000090       __imp_VirtualProtect       000000018002b090     kernel32:KERNEL32.dll
 0002:00000098       __imp_GetSystemInfo        000000018002b098     kernel32:KERNEL32.dll
 0002:000000a0       __imp_GetLastError         000000018002b0a0     kernel32:KERNEL32.dll
 0002:000000a8       __imp_RaiseException       000000018002b0a8     kernel32:KERNEL32.dll
 0002:000000b0       __imp_IsProcessorFeaturePresent 000000018002b0b0     kernel32:KERNEL32.dll
 0002:000000b8       \177KERNEL32_NULL_THUNK_DATA 000000018002b0b8     kernel32:KERNEL32.dll
 0002:000000c0       __imp_memcpy               000000018002b0c0     vcruntime:VCRUNTIME140.dll
 0002:000000c8       __imp_strstr               000000018002b0c8     vcruntime:VCRUNTIME140.dll
 0002:000000d0       __imp___std_type_info_destroy_list 000000018002b0d0     vcruntime:VCRUNTIME140.dll
 0002:000000d8       __imp___C_specific_handler 000000018002b0d8     vcruntime:VCRUNTIME140.dll
 0002:000000e0       __imp_memset               000000018002b0e0     vcruntime:VCRUNTIME140.dll
 0002:000000e8       __imp__purecall            000000018002b0e8     vcruntime:VCRUNTIME140.dll
 0002:000000f0       __imp___std_type_info_name 000000018002b0f0     vcruntime:VCRUNTIME140.dll
 0002:000000f8       \177VCRUNTIME140_NULL_THUNK_DATA 000000018002b0f8     vcruntime:VCRUNTIME140.dll
 0002:00000100       __imp_free                 000000018002b100     ucrt:api-ms-win-crt-heap-l1-1-0.dll
 0002:00000108       \177api-ms-win-crt-heap-l1-1-0_NULL_THUNK_DATA 000000018002b108     ucrt:api-ms-win-crt-heap-l1-1-0.dll
 0002:00000110       __imp__fpclass             000000018002b110     ucrt:api-ms-win-crt-math-l1-1-0.dll
 0002:00000118       __imp_atan2f               000000018002b118     ucrt:api-ms-win-crt-math-l1-1-0.dll
 0002:00000120       \177api-ms-win-crt-math-l1-1-0_NULL_THUNK_DATA 000000018002b120     ucrt:api-ms-win-crt-math-l1-1-0.dll
 0002:00000128       __imp__seh_filter_dll      000000018002b128     ucrt:api-ms-win-crt-runtime-l1-1-0.dll
 0002:00000130       __imp__configure_narrow_argv 000000018002b130     ucrt:api-ms-win-crt-runtime-l1-1-0.dll
 0002:00000138       __imp__initialize_narrow_environment 000000018002b138     ucrt:api-ms-win-crt-runtime-l1-1-0.dll
 0002:00000140       __imp__initterm_e          000000018002b140     ucrt:api-ms-win-crt-runtime-l1-1-0.dll
 0002:00000148       __imp__initialize_onexit_table 000000018002b148     ucrt:api-ms-win-crt-runtime-l1-1-0.dll
 0002:00000150       __imp__execute_onexit_table 000000018002b150     ucrt:api-ms-win-crt-runtime-l1-1-0.dll
 0002:00000158       __imp__initterm            000000018002b158     ucrt:api-ms-win-crt-runtime-l1-1-0.dll
 0002:00000160       __imp__cexit               000000018002b160     ucrt:api-ms-win-crt-runtime-l1-1-0.dll
 0002:00000168       \177api-ms-win-crt-runtime-l1-1-0_NULL_THUNK_DATA 000000018002b168     ucrt:api-ms-win-crt-runtime-l1-1-0.dll
 0002:00000170       __imp_strcmp               000000018002b170     ucrt:api-ms-win-crt-string-l1-1-0.dll
 0002:00000178       \177api-ms-win-crt-string-l1-1-0_NULL_THUNK_DATA 000000018002b178     ucrt:api-ms-win-crt-string-l1-1-0.dll
 0002:00000180       __guard_check_icall_fptr   000000018002b180     MSVCRT:guard_support.obj
 0002:00000188       __guard_xfg_check_icall_fptr 000000018002b188     MSVCRT:guard_support.obj
 0002:00000190       __guard_dispatch_icall_fptr 000000018002b190     MSVCRT:guard_support.obj
 0002:00000198       __guard_xfg_dispatch_icall_fptr 000000018002b198     MSVCRT:guard_support.obj
 0002:000001a0       __guard_xfg_table_dispatch_icall_fptr 000000018002b1a0     MSVCRT:guard_support.obj
 0002:000001a8       __castguard_check_failure_os_handled_fptr 000000018002b1a8     MSVCRT:guard_support.obj
 0002:000001b0       __guard_memcpy_fptr        000000018002b1b0     vcruntime:softmemtag.obj
 0002:000001b8       __xc_a                     000000018002b1b8     MSVCRT:initializers.obj
 0002:000003a0       __xc_z                     000000018002b3a0     MSVCRT:initializers.obj
 0002:000003a8       __xi_a                     000000018002b3a8     MSVCRT:initializers.obj
 0002:000003b0       __xi_z                     000000018002b3b0     MSVCRT:initializers.obj
 0002:000003b8       __xp_a                     000000018002b3b8     MSVCRT:initializers.obj
 0002:000003c0       __xp_z                     000000018002b3c0     MSVCRT:initializers.obj
 0002:000003c8       __xt_a                     000000018002b3c8     MSVCRT:initializers.obj
 0002:000003d0       __xt_z                     000000018002b3d0     MSVCRT:initializers.obj
 0002:000003e0       ??_7PxFoundation@physx@@6B@ 000000018002b3e0     Adjacencies.obj
 0002:00000420       ??_C@_0IC@HLOMGAGA@C?3?2Users?2jungle?2source?2repos?2Ju@ 000000018002b420     Adjacencies.obj
 0002:000004a8       ??_C@_0DA@FMEHLBKI@Adjacencies?3?3UpdateLink?3?5invali@ 000000018002b4a8     Adjacencies.obj
 0002:000004e0       ??_C@_0EA@CPHOACLK@Adjacencies?3?3CreateDatabase?3?5ca@ 000000018002b4e0     Adjacencies.obj
 0002:00000520       ??_C@_0BM@OIFKLHDN@?$DMallocation?5names?5disabled?$DO@ 000000018002b520     Adjacencies.obj
 0002:00000560       ?sBufferSize@DebugText@Cm@physx@@2HB 000000018002b560     Cooking.obj
 0002:00000564       ??_C@_06EJKDJEDO@PxBase@   000000018002b564     Cooking.obj
 0002:00000570       ??_C@_0N@CDGINLLF@PxConvexMesh@ 000000018002b570     Cooking.obj
 0002:00000580       ??_C@_0O@PBAKPCEC@PxHeightField@ 000000018002b580     Cooking.obj
 0002:00000590       ??_7PxBase@physx@@6B@      000000018002b590     Cooking.obj
 0002:000005b8       ??_7PxCooking@physx@@6B@   000000018002b5b8     Cooking.obj
 0002:00000638       ??_7Cooking@physx@@6B@     000000018002b638     Cooking.obj
 0002:000006c0       ??_C@_0FC@PJIHAFK@Cooking?3?3validateTriangleMesh?3?5@ 000000018002b6c0     Cooking.obj
 0002:00000720       ??_C@_0HO@DDDDLNFI@C?3?2Users?2jungle?2source?2repos?2Ju@ 000000018002b720     Cooking.obj
 0002:000007a0       ??_C@_0EK@EKAIJEBL@Cooking?3?3cookConvexMesh?3?5user?9p@ 000000018002b7a0     Cooking.obj
 0002:000007f0       ??_C@_0FA@GFFGAPML@Cooking?3?3cookConvexMesh?3?5provid@ 000000018002b7f0     Cooking.obj
 0002:00000840       ??_C@_0EP@PKDCPNNO@Cooking?3?3cookConvexMesh?3?5provid@ 000000018002b840     Cooking.obj
 0002:00000890       ??_C@_0EO@LKFMMDE@Cooking?3?3cookConvexMesh?3?5user?9p@ 000000018002b890     Cooking.obj
 0002:000008e0       ??_C@_0HO@DIFLNJDF@C?3?2Users?2jungle?2source?2repos?2Ju@ 000000018002b8e0     Cooking.obj
 0002:00000960       __real@3f800000            000000018002b960     Cooking.obj
 0002:00000970       __xmm@000000003a83126f3a83126f3a83126f 000000018002b970     Cooking.obj
 0002:00000980       __xmm@00000000ba83126fba83126fba83126f 000000018002b980     Cooking.obj
 0002:00000990       __xmm@3a83126f3a83126f3a83126f3a83126f 000000018002b990     Cooking.obj
 0002:000009a0       __xmm@80000000800000008000000080000000 000000018002b9a0     Cooking.obj
 0002:000009b0       __xmm@ba83126fba83126fba83126fba83126f 000000018002b9b0     Cooking.obj
 0002:000009c0       ??_C@_0BA@DLCJDKDM@NonTrackedAlloc@ 000000018002b9c0     CookingUtils.obj
 0002:000009d0       ??_C@_0ID@JBKFAGJI@C?3?2Users?2jungle?2source?2repos?2Ju@ 000000018002b9d0     CookingUtils.obj
 0002:00000a60       ??_C@_0HP@CBCJAAJI@C?3?2Users?2jungle?2source?2repos?2Ju@ 000000018002ba60     EdgeList.obj
 0002:00000ae0       ??_C@_0CO@GBNJFPN@EdgeList?3?3CreateFacesToEdges?3?5N@ 000000018002bae0     EdgeList.obj
 0002:00000b10       ??_C@_0CO@EHJBBMNK@EdgeList?3?3ComputeActiveEdges?3?5N@ 000000018002bb10     EdgeList.obj
 0002:00000b40       ??_C@_0DI@GBHLFOFP@ActiveEdges?3?3ComputeConvexEdges@ 000000018002bb40     EdgeList.obj
 0002:00000b78       ??_C@_0DM@JOGBLHDI@ActiveEdges?3?3ComputeConvexEdges@ 000000018002bb78     EdgeList.obj
 0002:00000bc0       ??_C@_0ED@FEMJKPEL@ActiveEdges?3?3ComputeConvexEdges@ 000000018002bbc0     EdgeList.obj
 0002:00000c10       ??_C@_0EB@BFDPMFCD@ActiveEdges?3?3ComputeConvexEdges@ 000000018002bc10     EdgeList.obj
 0002:00000c54       __real@bf7fbe77            000000018002bc54     EdgeList.obj
 0002:00000c60       __xmm@7fffffff7fffffff7fffffff7fffffff 000000018002bc60     EdgeList.obj
 0002:00000c70       ??_C@_0IC@FOLHENDE@C?3?2Users?2jungle?2source?2repos?2Ju@ 000000018002bc70     MeshCleaner.obj
 0002:00000cf4       __real@3f000000            000000018002bcf4     MeshCleaner.obj
 0002:00000cf8       ??_7Quantizer@physx@@6B@   000000018002bcf8     Quantizer.obj
 0002:00000d20       ??_7QuantizerImpl@@6B@     000000018002bd20     Quantizer.obj
 0002:00000d50       ??_C@_0IA@DHBIEHJE@C?3?2Users?2jungle?2source?2repos?2Ju@ 000000018002bd50     Quantizer.obj
 0002:00000dd0       __real@38d1b717            000000018002bdd0     Quantizer.obj
 0002:00000dd4       __real@3c23d70a            000000018002bdd4     Quantizer.obj
 0002:00000dd8       __real@3f8020c5            000000018002bdd8     Quantizer.obj
 0002:00000ddc       __real@7f7fffff            000000018002bddc     Quantizer.obj
 0002:00000de0       __real@fe7fffff            000000018002bde0     Quantizer.obj
 0002:00000df0       __xmm@fe7fffff7e7fffff7e7fffff7e7fffff 000000018002bdf0     Quantizer.obj
 0002:00000e20       ??_C@_0IK@PGJJPLB@C?3?2Users?2jungle?2source?2repos?2Ju@ 000000018002be20     BVHStructureBuilder.obj
 0002:00000eb0       __xmm@3ba3d70a3ba3d70a3ba3d70a3ba3d70a 000000018002beb0     BVHStructureBuilder.obj
 0002:00000ee0       ?reductionFactors@SubSortQuick@physx@@2QBMB 000000018002bee0     RTreeCooking.obj
 0002:00000ef0       ?stopAtTrisPerLeaf1@SubSortQuick@physx@@2QBIB 000000018002bef0     RTreeCooking.obj
 0002:00000fa0       ??_C@_0II@JJAOPFMD@C?3?2Users?2jungle?2source?2repos?2Ju@ 000000018002bfa0     RTreeCooking.obj
 0002:00001030       ??_C@_0HN@CHGMPDHB@C?3?2Users?2jungle?2source?2repos?2Ju@ 000000018002c030     RTreeCooking.obj
 0002:000010b0       ??_C@_0IG@NBEBBLDM@C?3?2Users?2jungle?2source?2repos?2Ju@ 000000018002c0b0     RTreeCooking.obj
 0002:00001138       __real@37800080            000000018002c138     RTreeCooking.obj
 0002:0000113c       __real@41100000            000000018002c13c     RTreeCooking.obj
 0002:00001140       __real@41700000            000000018002c140     RTreeCooking.obj
 0002:00001144       __real@42200000            000000018002c144     RTreeCooking.obj
 0002:00001148       __real@ff7fffff            000000018002c148     RTreeCooking.obj
 0002:00001150       __xmm@00000004000000030000000200000001 000000018002c150     RTreeCooking.obj
 0002:00001160       __xmm@3a03126f3a03126f3a03126f3a03126f 000000018002c160     RTreeCooking.obj
 0002:00001170       __xmm@7f7fffff7f7fffff7f7fffff7f7fffff 000000018002c170     RTreeCooking.obj
 0002:00001180       __xmm@ff7fffffff7fffffff7fffffff7fffff 000000018002c180     RTreeCooking.obj
 0002:000011b0       __real@34800000            000000018002c1b0     MeshBuilder.obj
 0002:000011e0       ??_7MeshDataBase@Gu@physx@@6B@ 000000018002c1e0     TriangleMeshBuilder.obj
 0002:000011f0       ??_C@_0IB@HMGIGILI@C?3?2Users?2jungle?2source?2repos?2Ju@ 000000018002c1f0     TriangleMeshBuilder.obj
 0002:00001278       ??_7TriangleMeshData@Gu@physx@@6B@ 000000018002c278     TriangleMeshBuilder.obj
 0002:00001280       ??_7RTreeTriangleData@Gu@physx@@6B@ 000000018002c280     TriangleMeshBuilder.obj
 0002:00001288       ??_7BV4TriangleData@Gu@physx@@6B@ 000000018002c288     TriangleMeshBuilder.obj
 0002:00001290       ??_7RemapCallback@RTreeCooker@physx@@6B@ 000000018002c290     TriangleMeshBuilder.obj
 0002:000012a0       ??_7TriangleMeshBuilder@physx@@6B@ 000000018002c2a0     TriangleMeshBuilder.obj
 0002:000012c8       ??_7RTreeTriangleMeshBuilder@physx@@6B@ 000000018002c2c8     TriangleMeshBuilder.obj
 0002:000012f0       ??_7BV4TriangleMeshBuilder@physx@@6B@ 000000018002c2f0     TriangleMeshBuilder.obj
 0002:00001320       ??_C@_0JA@JDFKIGHF@C?3?2Users?2jungle?2source?2repos?2Ju@ 000000018002c320     TriangleMeshBuilder.obj
 0002:000013b0       ??_C@_0IP@GMJPLJJA@C?3?2Users?2jungle?2source?2repos?2Ju@ 000000018002c3b0     TriangleMeshBuilder.obj
 0002:00001440       ??_C@_0DJ@IGODLHLP@TriangleMesh?3?5Enable?5mesh?5weldi@ 000000018002c440     TriangleMeshBuilder.obj
 0002:00001480       ??_C@_0FJ@HHJLKGDF@TriangleMesh?3?5triangles?5are?5too@ 000000018002c480     TriangleMeshBuilder.obj
 0002:000014e0       ??_C@_0CN@KGPHHHLK@TriangleMesh?3?5mesh?5is?5too?5big?5f@ 000000018002c4e0     TriangleMeshBuilder.obj
 0002:00001510       ??_C@_0DD@CMJGDCNN@TriangleMesh?3?3loadFromDesc?3?5des@ 000000018002c510     TriangleMeshBuilder.obj
 0002:00001550       ??_C@_0ED@ILJJNHIP@TriangleMesh?3?3loadFromDesc?3?5mPa@ 000000018002c550     TriangleMeshBuilder.obj
 0002:00001598       ??_C@_0BJ@BKHDBBHO@cleaning?5the?5mesh?5failed@ 000000018002c598     TriangleMeshBuilder.obj
 0002:000015b8       ??_C@_0BK@JIDHMMCE@BV4?5tree?5failed?5to?5build?4@ 000000018002c5b8     TriangleMeshBuilder.obj
 0002:000015d8       ??_C@_0BL@DHNECNBE@BV32?5tree?5failed?5to?5build?4@ 000000018002c5d8     TriangleMeshBuilder.obj
 0002:000015f8       ??_7RTreeCookerRemap@physx@@6B@ 000000018002c5f8     TriangleMeshBuilder.obj
 0002:00001608       __real@3951b717            000000018002c608     TriangleMeshBuilder.obj
 0002:0000160c       __real@48742400            000000018002c60c     TriangleMeshBuilder.obj
 0002:00001610       __xmm@00000003000000020000000100000000 000000018002c610     TriangleMeshBuilder.obj
 0002:00001640       ??_C@_0JC@JFMDHMII@C?3?2Users?2jungle?2source?2repos?2Ju@ 000000018002c640     BigConvexDataBuilder.obj
 0002:000016d4       __real@40000000            000000018002c6d4     BigConvexDataBuilder.obj
 0002:00001700       ??_C@_0IP@POCBFLPF@C?3?2Users?2jungle?2source?2repos?2Ju@ 000000018002c700     ConvexHullBuilder.obj
 0002:00001790       ??_C@_0EB@DCEIFDGC@ConvexHullBuilder?3?3init?3?5convex@ 000000018002c790     ConvexHullBuilder.obj
 0002:000017e0       ??_C@_0FM@KICBLCBH@Gu?3?3ConvexMesh?3?3checkHullPolygo@ 000000018002c7e0     ConvexHullBuilder.obj
 0002:00001840       ??_C@_0GO@HBFIOGLL@Gu?3?3ConvexMesh?3?3checkHullPolygo@ 000000018002c840     ConvexHullBuilder.obj
 0002:000018b0       ??_C@_0HF@OLJFBIEL@ConvexHullBuilder?3?5convex?5hull?5@ 000000018002c8b0     ConvexHullBuilder.obj
 0002:00001930       ??_C@_0OG@JNHFOIL@ConvexHullBuilder?3?5convex?5hull?5@ 000000018002c930     ConvexHullBuilder.obj
 0002:00001a20       ??_C@_0EJ@NIOIBAKH@Cooking?3?3cookConvexMesh?3?5non?9ma@ 000000018002ca20     ConvexHullBuilder.obj
 0002:00001a6c       __real@3ca3d70a            000000018002ca6c     ConvexHullBuilder.obj
 0002:00001a70       __real@3eaaaaab            000000018002ca70     ConvexHullBuilder.obj
 0002:00001a78       ??_7ConvexHullLib@physx@@6B@ 000000018002ca78     ConvexHullLib.obj
 0002:00001aa0       ??_C@_0IL@HLIPEGCM@C?3?2Users?2jungle?2source?2repos?2Ju@ 000000018002caa0     ConvexHullLib.obj
 0002:00001b30       ??_C@_0JE@PABBNGEL@ConvexHullLib?3?3cleanupVertices?3@ 000000018002cb30     ConvexHullLib.obj
 0002:00001bc4       __real@358637bd            000000018002cbc4     ConvexHullLib.obj
 0002:00001bc8       __real@3d4ccccd            000000018002cbc8     ConvexHullLib.obj
 0002:00001bf0       ??_C@_0IN@BDNDBJGA@C?3?2Users?2jungle?2source?2repos?2Ju@ 000000018002cbf0     ConvexHullUtils.obj
 0002:00001c80       __real@3e20d97c            000000018002cc80     ConvexHullUtils.obj
 0002:00001c90       __xmm@00800000008000000080000000800000 000000018002cc90     ConvexHullUtils.obj
 0002:00001ca0       __xmm@3f0000003f0000003f0000003f000000 000000018002cca0     ConvexHullUtils.obj
 0002:00001cb0       __xmm@bf000000bf000000bf000000bf000000 000000018002ccb0     ConvexHullUtils.obj
 0002:00001ce0       ??_C@_0DF@LLFJIJGM@Gu?3?3ConvexMesh?3?3loadFromDesc?3?5d@ 000000018002cce0     ConvexMeshBuilder.obj
 0002:00001d20       ??_C@_0IP@DAIFPLKA@C?3?2Users?2jungle?2source?2repos?2Ju@ 000000018002cd20     ConvexMeshBuilder.obj
 0002:00001db0       ??_C@_0HK@JOGKIEAA@Gu?3?3ConvexMesh?3?5Mesh?5has?5a?5nega@ 000000018002cdb0     ConvexMeshBuilder.obj
 0002:00001e30       ??_C@_0DH@NJPPHFFD@Gu?3?3ConvexMesh?3?5Error?5computing@ 000000018002ce30     ConvexMeshBuilder.obj
 0002:00001e68       ??_C@_0DJ@LJDLGLDJ@Gu?3?3ConvexMesh?3?3loadConvexHull?3@ 000000018002ce68     ConvexMeshBuilder.obj
 0002:00001eb0       ??_C@_0HJ@KJANPPOE@ConvexMeshBuilder?3?3computeHullP@ 000000018002ceb0     ConvexMeshBuilder.obj
 0002:00001f2c       ??_C@_06KDGGGLIJ@PxVec3@   000000018002cf2c     ConvexMeshBuilder.obj
 0002:00001f34       ??_C@_05LMJPANIN@PxU32@    000000018002cf34     ConvexMeshBuilder.obj
 0002:00001f40       ??_C@_0O@JMAGMMGG@PxHullPolygon@ 000000018002cf40     ConvexMeshBuilder.obj
 0002:00001f50       __real@33d6bf95            000000018002cf50     ConvexMeshBuilder.obj
 0002:00001f54       __real@3f13cd3a            000000018002cf54     ConvexMeshBuilder.obj
 0002:00001f58       __real@b3d6bf95            000000018002cf58     ConvexMeshBuilder.obj
 0002:00001f5c       __real@bf800000            000000018002cf5c     ConvexMeshBuilder.obj
 0002:00001f60       __xmm@80000000000000008000000000000000 000000018002cf60     ConvexMeshBuilder.obj
 0002:00001f70       ??_C@_0DP@PJBJBEGF@Meshmerizer?3?3extractHullPolygon@ 000000018002cf70     ConvexPolygonsBuilder.obj
 0002:00001fb0       ??_C@_0JD@GHFIHACB@C?3?2Users?2jungle?2source?2repos?2Ju@ 000000018002cfb0     ConvexPolygonsBuilder.obj
 0002:00002048       ??_C@_0DL@IAFKOCCK@ConvexHullBuilder?3?5convex?5hull?5@ 000000018002d048     ConvexPolygonsBuilder.obj
 0002:00002090       ??_C@_0GF@OJLJHAMH@ConvexHullBuilder?3?3CreateTriang@ 000000018002d090     ConvexPolygonsBuilder.obj
 0002:000020f8       ??_7QuickHullConvexHullLib@physx@@6B@ 000000018002d0f8     QuickHullConvexHullLib.obj
 0002:00002120       ??_C@_0JE@KHIPGDDK@C?3?2Users?2jungle?2source?2repos?2Ju@ 000000018002d120     QuickHullConvexHullLib.obj
 0002:000021c0       ??_C@_0GA@EPPAEJPM@QuickHullConvexHullLib?3?3findSim@ 000000018002d1c0     QuickHullConvexHullLib.obj
 0002:00002220       ??_C@_0FB@NEBIJMML@QuickHullConvexHullLib?3?3findSim@ 000000018002d220     QuickHullConvexHullLib.obj
 0002:00002280       ??_C@_0FB@CLLCBEMM@QuickHullConvexHullLib?3?3findSim@ 000000018002d280     QuickHullConvexHullLib.obj
 0002:000022d4       __real@34c00000            000000018002d2d4     QuickHullConvexHullLib.obj
 0002:000022d8       __real@3e800000            000000018002d2d8     QuickHullConvexHullLib.obj
 0002:00002300       __real@00000000            000000018002d300     VolumeIntegration.obj
 0002:00002310       __xmm@3c0888893c0888893c0888893c088889 000000018002d310     VolumeIntegration.obj
 0002:00002320       __xmm@3c8888893c8888893c8888893c888889 000000018002d320     VolumeIntegration.obj
 0002:00002330       __xmm@3d2aaaab3d2aaaab3d2aaaab3d2aaaab 000000018002d330     VolumeIntegration.obj
 0002:00002340       __xmm@3e2aaaab3e2aaaab3e2aaaab3e2aaaab 000000018002d340     VolumeIntegration.obj
 0002:00002350       __xmm@3f811111111111113f81111111111111 000000018002d350     VolumeIntegration.obj
 0002:00002360       __xmm@3f811111111111113f91111111111111 000000018002d360     VolumeIntegration.obj
 0002:00002370       __xmm@3f911111111111113f91111111111111 000000018002d370     VolumeIntegration.obj
 0002:00002380       __xmm@3fa55555555555553fa5555555555555 000000018002d380     VolumeIntegration.obj
 0002:00002390       __xmm@3fa55555555555553fc5555555555555 000000018002d390     VolumeIntegration.obj
 0002:000023a0       ??_C@_0BA@EGLNOO@PhysXFoundation@ 000000018002d3a0     WindowsCookingDelayLoadHook.obj
 0002:000023b0       ??_C@_0M@ILKNCJKN@PhysXCommon@ 000000018002d3b0     WindowsCookingDelayLoadHook.obj
 0002:000023c0       __sz_PhysXCommon_64_dll    000000018002d3c0     PhysXCommon_64:PhysXCommon_64.dll
 0002:000023e0       __sz_PhysXFoundation_64_dll 000000018002d3e0     PhysXFoundation_64:PhysXFoundation_64.dll
 0002:000023f8       ??_C@_1BK@DBDEIDLH@?$AAK?$AAE?$AAR?$AAN?$AAE?$AAL?$AA3?$AA2?$AA?4?$AAD?$AAL?$AAL@ 000000018002d3f8     Delayimp:delayhlp.obj
 0002:00002418       ??_C@_0BI@OMNLIJDB@AcquireSRWLockExclusive@ 000000018002d418     Delayimp:delayhlp.obj
 0002:00002430       ??_C@_0BI@HMIEPCNJ@ReleaseSRWLockExclusive@ 000000018002d430     Delayimp:delayhlp.obj
 0002:00002448       __pfnDliFailureHook2       000000018002d448     Delayimp:delayhk1.obj
 0002:00002450       __bChangeProtectionOfWholeDloadSection 000000018002d450     Delayimp:delaygv1.obj
 0002:00002460       ??_7type_info@@6B@         000000018002d460     MSVCRT:std_type_info_static.obj
 0002:000024d0       _pDefaultRawDllMain        000000018002d4d0     MSVCRT:dll_dllmain.obj
 0002:000024d0       _pRawDllMain               000000018002d4d0     MSVCRT:dll_dllmain.obj
 0002:000024e0       _load_config_used          000000018002d4e0     MSVCRT:loadcfg.obj
 0002:00002620       __xmm@ffffffffffffffffffffffffffffffff 000000018002d620     MSVCRT:utility.obj
 0002:00002700       ??_R4type_info@@6B@        000000018002d700     MSVCRT:std_type_info_static.obj
 0002:00002728       ??_R3type_info@@8          000000018002d728     MSVCRT:std_type_info_static.obj
 0002:00002740       ??_R2type_info@@8          000000018002d740     MSVCRT:std_type_info_static.obj
 0002:00002750       ??_R1A@?0A@EA@type_info@@8 000000018002d750     MSVCRT:std_type_info_static.obj
 0002:00002774       __volatile_metadata        000000018002d774     <linker-defined>
 0002:00002c28       __rtc_iaa                  000000018002dc28     MSVCRT:initsect.obj
 0002:00002c30       __rtc_izz                  000000018002dc30     MSVCRT:initsect.obj
 0002:00002c38       __rtc_taa                  000000018002dc38     MSVCRT:initsect.obj
 0002:00002c40       __rtc_tzz                  000000018002dc40     MSVCRT:initsect.obj
 0002:00005a78       __DELAY_IMPORT_DESCRIPTOR_physxcommon_64_dll 0000000180030a78     PhysXCommon_64:PhysXCommon_64.dll
 0002:00005a98       __DELAY_IMPORT_DESCRIPTOR_physxfoundation_64_dll 0000000180030a98     PhysXFoundation_64:PhysXFoundation_64.dll
 0002:00005ab8       __NULL_DELAY_IMPORT_DESCRIPTOR 0000000180030ab8     PhysXCommon_64:PhysXCommon_64.dll
 0002:00005bf8       \177PhysXCommon_64_NULL_THUNK_DATA_DLN 0000000180030bf8     PhysXCommon_64:PhysXCommon_64.dll
 0002:00005c58       \177PhysXFoundation_64_NULL_THUNK_DATA_DLN 0000000180030c58     PhysXFoundation_64:PhysXFoundation_64.dll
 0002:000065b8       \177PhysXCommon_64_NULL_THUNK_DATA_DLB 00000001800315b8     PhysXCommon_64:PhysXCommon_64.dll
 0002:000066e0       \177PhysXFoundation_64_NULL_THUNK_DATA_DLB 00000001800316e0     PhysXFoundation_64:PhysXFoundation_64.dll
 0002:00008560       __IMPORT_DESCRIPTOR_KERNEL32 0000000180033560     kernel32:KERNEL32.dll
 0002:00008574       __IMPORT_DESCRIPTOR_VCRUNTIME140 0000000180033574     vcruntime:VCRUNTIME140.dll
 0002:00008588       __IMPORT_DESCRIPTOR_api-ms-win-crt-string-l1-1-0 0000000180033588     ucrt:api-ms-win-crt-string-l1-1-0.dll
 0002:0000859c       __IMPORT_DESCRIPTOR_api-ms-win-crt-math-l1-1-0 000000018003359c     ucrt:api-ms-win-crt-math-l1-1-0.dll
 0002:000085b0       __IMPORT_DESCRIPTOR_api-ms-win-crt-heap-l1-1-0 00000001800335b0     ucrt:api-ms-win-crt-heap-l1-1-0.dll
 0002:000085c4       __IMPORT_DESCRIPTOR_api-ms-win-crt-runtime-l1-1-0 00000001800335c4     ucrt:api-ms-win-crt-runtime-l1-1-0.dll
 0002:000085d8       __NULL_IMPORT_DESCRIPTOR   00000001800335d8     kernel32:KERNEL32.dll
 0003:00000008       __pfnDliNotifyHook2        0000000180034008     WindowsCookingDelayLoadHook.obj
 0003:00000010       _fltused                   0000000180034010     MSVCRT:fltused.obj
 0003:00000020       __isa_inverted             0000000180034020     MSVCRT:cpu_disp.obj
 0003:00000028       __isa_available            0000000180034028     MSVCRT:cpu_disp.obj
 0003:0000002c       __isa_enabled              000000018003402c     MSVCRT:cpu_disp.obj
 0003:00000030       __memset_fast_string_threshold 0000000180034030     MSVCRT:cpu_disp.obj
 0003:00000038       __memset_nt_threshold      0000000180034038     MSVCRT:cpu_disp.obj
 0003:00000040       __scrt_native_dllmain_reason 0000000180034040     MSVCRT:utility.obj
 0003:00000080       __security_cookie          0000000180034080     MSVCRT:gs_cookie.obj
 0003:000000c0       __security_cookie_complement 00000001800340c0     MSVCRT:gs_cookie.obj
 0003:000000d0       __scrt_ucrt_dll_is_in_use  00000001800340d0     MSVCRT:ucrt_stubs.obj
 0003:000000e0       ??_R0?AVAdjEdge@@@8        00000001800340e0     Adjacencies.obj
 0003:00000100       ??_R0I@8                   0000000180034100     Adjacencies.obj
 0003:00000118       ??_R0?AVAdjTriangle@physx@@@8 0000000180034118     Adjacencies.obj
 0003:00000140       ??_R0?AVCooking@physx@@@8  0000000180034140     Cooking.obj
 0003:00000168       ??_R0?AVHeightField@Gu@physx@@@8 0000000180034168     Cooking.obj
 0003:00000198       ??_R0?AVQuickHullConvexHullLib@physx@@@8 0000000180034198     Cooking.obj
 0003:000001d0       ??_R0?AUPxDebugLine@physx@@@8 00000001800341d0     Cooking.obj
 0003:000001f8       ??_R0M@8                   00000001800341f8     CookingUtils.obj
 0003:00000210       ??_R0?AUEdgeData@Gu@physx@@@8 0000000180034210     EdgeList.obj
 0003:00000238       ??_R0?AUEdgeTriangleData@Gu@physx@@@8 0000000180034238     EdgeList.obj
 0003:00000268       ??_R0?AVQuantizerImpl@@@8  0000000180034268     Quantizer.obj
 0003:00000290       ??_R0?AVPxVec3@physx@@@8   0000000180034290     Quantizer.obj
 0003:000002b8       ??_R0?AUSlab@NodeAllocator@Gu@physx@@@8 00000001800342b8     BVHStructureBuilder.obj
 0003:000002f0       ??_R0?AURTreeNodeQ@Gu@physx@@@8 00000001800342f0     RTreeCooking.obj
 0003:00000320       ??_R0?AUInterval@physx@@@8 0000000180034320     RTreeCooking.obj
 0003:00000348       ??_R0?AURTreeNodeNQ@physx@@@8 0000000180034348     RTreeCooking.obj
 0003:00000370       ??_R0?AUPxBounds3V@physx@@@8 0000000180034370     RTreeCooking.obj
 0003:00000398       ??_R0?AVEdgeListBuilder@Gu@physx@@@8 0000000180034398     TriangleMeshBuilder.obj
 0003:000003c8       ??_R0?AVBV32Tree@Gu@physx@@@8 00000001800343c8     TriangleMeshBuilder.obj
 0003:000003f0       ??_R0E@8                   00000001800343f0     TriangleMeshBuilder.obj
 0003:00000408       ??_R0G@8                   0000000180034408     TriangleMeshBuilder.obj
 0003:00000420       ??_R0?AUEdgeTriLookup@physx@@@8 0000000180034420     TriangleMeshBuilder.obj
 0003:00000450       ??_R0?AUEdgeDescData@Gu@physx@@@8 0000000180034450     ConvexHullBuilder.obj
 0003:00000480       ??_R0_N@8                  0000000180034480     ConvexHullBuilder.obj
 0003:00000498       ??_R0?AVConvexHull@physx@@@8 0000000180034498     ConvexHullUtils.obj
 0003:000004c0       ??_R0?AVHalfEdge@ConvexHull@physx@@@8 00000001800344c0     ConvexHullUtils.obj
 0003:000004f0       ??_R0?AVPxPlane@physx@@@8  00000001800344f0     ConvexHullUtils.obj
 0003:00000518       ??_R0?AVBigConvexData@physx@@@8 0000000180034518     ConvexMeshBuilder.obj
 0003:00000548       ??_R0?AUHullTriangleData@physx@@@8 0000000180034548     ConvexPolygonsBuilder.obj
 0003:00000578       ??_R0?AVPair@@@8           0000000180034578     ConvexPolygonsBuilder.obj
 0003:00000598       ??_R0?AVQuickHull@local@@@8 0000000180034598     QuickHullConvexHullLib.obj
 0003:000005c0       ??_R0?AUExpandPoint@local@@@8 00000001800345c0     QuickHullConvexHullLib.obj
 0003:000005e8       ??_R0PEAUQuickHullFace@local@@@8 00000001800345e8     QuickHullConvexHullLib.obj
 0003:00000618       ??_R0PEAUQuickHullHalfEdge@local@@@8 0000000180034618     QuickHullConvexHullLib.obj
 0003:00000648       ??_R0PEAUQuickHullVertex@local@@@8 0000000180034648     QuickHullConvexHullLib.obj
 0003:00000678       ??_R0?AVtype_info@@@8      0000000180034678     MSVCRT:std_type_info_static.obj
 0003:00000698       __imp_??0RadixSortBuffered@Cm@physx@@QEAA@XZ 0000000180034698     PhysXCommon_64:PhysXCommon_64.dll
 0003:000006a0       __imp_??1BigConvexData@physx@@QEAA@XZ 00000001800346a0     PhysXCommon_64:PhysXCommon_64.dll
 0003:000006a8       __imp_??1RadixSortBuffered@Cm@physx@@UEAA@XZ 00000001800346a8     PhysXCommon_64:PhysXCommon_64.dll
 0003:000006b0       __imp_?Sort@RadixSortBuffered@Cm@physx@@QEAAAEAV123@PEBIIW4RadixHint@23@@Z 00000001800346b0     PhysXCommon_64:PhysXCommon_64.dll
 0003:000006b8       __imp_??0HeightField@Gu@physx@@QEAA@PEAVGuMeshFactory@2@@Z 00000001800346b8     PhysXCommon_64:PhysXCommon_64.dll
 0003:000006c0       __imp_?loadFromDesc@HeightField@Gu@physx@@QEAA_NAEBVPxHeightFieldDesc@3@@Z 00000001800346c0     PhysXCommon_64:PhysXCommon_64.dll
 0003:000006c8       __imp_?computeCellCoordinates@HeightField@Gu@physx@@QEBAIMMAEAM0@Z 00000001800346c8     PhysXCommon_64:PhysXCommon_64.dll
 0003:000006d0       __imp_?releaseMemory@HeightField@Gu@physx@@QEAAXXZ 00000001800346d0     PhysXCommon_64:PhysXCommon_64.dll
 0003:000006d8       __imp_??1HeightField@Gu@physx@@UEAA@XZ 00000001800346d8     PhysXCommon_64:PhysXCommon_64.dll
 0003:000006e0       __imp_??0NodeAllocator@Gu@physx@@QEAA@XZ 00000001800346e0     PhysXCommon_64:PhysXCommon_64.dll
 0003:000006e8       __imp_??1NodeAllocator@Gu@physx@@QEAA@XZ 00000001800346e8     PhysXCommon_64:PhysXCommon_64.dll
 0003:000006f0       __imp_?release@NodeAllocator@Gu@physx@@QEAAXXZ 00000001800346f0     PhysXCommon_64:PhysXCommon_64.dll
 0003:000006f8       __imp_?buildAABBTree@Gu@physx@@YA_NAEAVAABBTreeBuildParams@12@AEAVNodeAllocator@12@AEAUBuildStats@12@AEAPEAI@Z 00000001800346f8     PhysXCommon_64:PhysXCommon_64.dll
 0003:00000700       __imp_?writeDword@physx@@YAXI_NAEAVPxOutputStream@1@@Z 0000000180034700     PhysXCommon_64:PhysXCommon_64.dll
 0003:00000708       __imp_?writeFloatBuffer@physx@@YAXPEBMI_NAEAVPxOutputStream@1@@Z 0000000180034708     PhysXCommon_64:PhysXCommon_64.dll
 0003:00000710       __imp_?writeHeader@physx@@YA_NCCCCI_NAEAVPxOutputStream@1@@Z 0000000180034710     PhysXCommon_64:PhysXCommon_64.dll
 0003:00000718       __imp_?writeWord@physx@@YAXG_NAEAVPxOutputStream@1@@Z 0000000180034718     PhysXCommon_64:PhysXCommon_64.dll
 0003:00000720       __imp_?writeFloat@physx@@YAXM_NAEAVPxOutputStream@1@@Z 0000000180034720     PhysXCommon_64:PhysXCommon_64.dll
 0003:00000728       __imp_?computeBoundsAroundVertices@Gu@physx@@YAXAEAVPxBounds3@2@IPEIBVPxVec3@2@@Z 0000000180034728     PhysXCommon_64:PhysXCommon_64.dll
 0003:00000730       __imp_??0SourceMesh@Gu@physx@@QEAA@XZ 0000000180034730     PhysXCommon_64:PhysXCommon_64.dll
 0003:00000738       __imp_??1SourceMesh@Gu@physx@@QEAA@XZ 0000000180034738     PhysXCommon_64:PhysXCommon_64.dll
 0003:00000740       __imp_??0BV4Tree@Gu@physx@@QEAA@XZ 0000000180034740     PhysXCommon_64:PhysXCommon_64.dll
 0003:00000748       __imp_??1BV4Tree@Gu@physx@@QEAA@XZ 0000000180034748     PhysXCommon_64:PhysXCommon_64.dll
 0003:00000750       __imp_??0BV32Tree@Gu@physx@@QEAA@XZ 0000000180034750     PhysXCommon_64:PhysXCommon_64.dll
 0003:00000758       __imp_??1BV32Tree@Gu@physx@@QEAA@XZ 0000000180034758     PhysXCommon_64:PhysXCommon_64.dll
 0003:00000760       __imp_?writeWordBuffer@physx@@YAXPEBGI_NAEAVPxOutputStream@1@@Z 0000000180034760     PhysXCommon_64:PhysXCommon_64.dll
 0003:00000768       __imp_?computeMaxIndex@physx@@YAIPEBII@Z 0000000180034768     PhysXCommon_64:PhysXCommon_64.dll
 0003:00000770       __imp_?storeIndices@physx@@YAXIIPEBIAEAVPxOutputStream@1@_N@Z 0000000180034770     PhysXCommon_64:PhysXCommon_64.dll
 0003:00000778       __imp_?BuildBV4Ex@Gu@physx@@YA_NAEAVBV4Tree@12@AEAVSourceMesh@12@MI@Z 0000000180034778     PhysXCommon_64:PhysXCommon_64.dll
 0003:00000780       __imp_?BuildBV32Ex@Gu@physx@@YA_NAEAVBV32Tree@12@AEAVSourceMesh@12@MI@Z 0000000180034780     PhysXCommon_64:PhysXCommon_64.dll
 0003:00000788       __imp_?computeMaxIndex@physx@@YAGPEBGI@Z 0000000180034788     PhysXCommon_64:PhysXCommon_64.dll
 0003:00000790       __imp_?WriteHeader@Gu@physx@@YA_NEEEEI_NAEAVPxOutputStream@2@@Z 0000000180034790     PhysXCommon_64:PhysXCommon_64.dll
 0003:00000798       __imp_?StoreIndices@Gu@physx@@YAXGIPEBGAEAVPxOutputStream@2@_N@Z 0000000180034798     PhysXCommon_64:PhysXCommon_64.dll
 0003:000007a0       __imp_?CreateOffsets@BigConvexData@physx@@IEAAXXZ 00000001800347a0     PhysXCommon_64:PhysXCommon_64.dll
 0003:000007a8       __imp_?computeOBBPoints@Gu@physx@@YAXPEIAVPxVec3@2@AEBV32@1111@Z 00000001800347a8     PhysXCommon_64:PhysXCommon_64.dll
 0003:000007b0       __imp_??0BigConvexData@physx@@QEAA@XZ 00000001800347b0     PhysXCommon_64:PhysXCommon_64.dll
 0003:000007b8       \177PhysXCommon_64_NULL_THUNK_DATA_DLA 00000001800347b8     PhysXCommon_64:PhysXCommon_64.dll
 0003:000007c0       __imp_PxGetFoundation      00000001800347c0     PhysXFoundation_64:PhysXFoundation_64.dll
 0003:000007c8       __imp_?deallocate@TempAllocator@shdfnd@physx@@QEAAXPEAX@Z 00000001800347c8     PhysXFoundation_64:PhysXFoundation_64.dll
 0003:000007d0       __imp_?getAllocator@shdfnd@physx@@YAAEAVPxAllocatorCallback@2@XZ 00000001800347d0     PhysXFoundation_64:PhysXFoundation_64.dll
 0003:000007d8       __imp_?getInstance@Foundation@shdfnd@physx@@SAAEAV123@XZ 00000001800347d8     PhysXFoundation_64:PhysXFoundation_64.dll
 0003:000007e0       __imp_?error@Foundation@shdfnd@physx@@QEAAXW4Enum@PxErrorCode@3@PEBDH1ZZ 00000001800347e0     PhysXFoundation_64:PhysXFoundation_64.dll
 0003:000007e8       __imp_?incRefCount@Foundation@shdfnd@physx@@SAXXZ 00000001800347e8     PhysXFoundation_64:PhysXFoundation_64.dll
 0003:000007f0       __imp_?decRefCount@Foundation@shdfnd@physx@@SAXXZ 00000001800347f0     PhysXFoundation_64:PhysXFoundation_64.dll
 0003:000007f8       __imp_??0FPUGuard@shdfnd@physx@@QEAA@XZ 00000001800347f8     PhysXFoundation_64:PhysXFoundation_64.dll
 0003:00000800       __imp_??1FPUGuard@shdfnd@physx@@QEAA@XZ 0000000180034800     PhysXFoundation_64:PhysXFoundation_64.dll
 0003:00000808       __imp_?allocate@TempAllocator@shdfnd@physx@@QEAAPEAX_KPEBDH@Z 0000000180034808     PhysXFoundation_64:PhysXFoundation_64.dll
 0003:00000810       __imp_?PxDiagonalize@physx@@YA?AVPxVec3@1@AEBVPxMat33@1@AEAVPxQuat@1@@Z 0000000180034810     PhysXFoundation_64:PhysXFoundation_64.dll
 0003:00000818       \177PhysXFoundation_64_NULL_THUNK_DATA_DLA 0000000180034818     PhysXFoundation_64:PhysXFoundation_64.dll
 0003:00000be8       __hmod__PhysXCommon_64_dll 0000000180034be8     PhysXCommon_64:PhysXCommon_64.dll
 0003:00000bf0       __hmod__PhysXFoundation_64_dll 0000000180034bf0     PhysXFoundation_64:PhysXFoundation_64.dll
 0003:00000bf8       ?DloadKernel32@@3PEAUHINSTANCE__@@EA 0000000180034bf8     Delayimp:delayhlp.obj
 0003:00000c00       ?DloadAcquireSRWLockExclusive@@3P6AXPEA_K@ZEA 0000000180034c00     Delayimp:delayhlp.obj
 0003:00000c08       ?DloadReleaseSRWLockExclusive@@3P6AXPEA_K@ZEA 0000000180034c08     Delayimp:delayhlp.obj
 0003:00000c10       ?DloadSrwLock@@3_KA        0000000180034c10     Delayimp:delayhlp.obj
 0003:00000c18       ?DloadSectionLockCount@@3KA 0000000180034c18     Delayimp:delayhlp.obj
 0003:00000c1c       ?DloadSectionOldProtection@@3KA 0000000180034c1c     Delayimp:delayhlp.obj
 0003:00000c20       ?DloadSectionCommitPermanent@@3KA 0000000180034c20     Delayimp:delayhlp.obj
 0003:00000c30       ?__type_info_root_node@@3U__type_info_node@@A 0000000180034c30     MSVCRT:tncleanup.obj
 0003:00000c44       __avx10_version            0000000180034c44     MSVCRT:cpu_disp.obj
 0003:00000c48       __favor                    0000000180034c48     MSVCRT:cpu_disp.obj
 0003:00000c50       ?_OptionsStorage@?1??__local_stdio_printf_options@@9@4_KA 0000000180034c50     MSVCRT:default_local_stdio_options.obj
 0003:00000c58       ?_OptionsStorage@?1??__local_stdio_scanf_options@@9@4_KA 0000000180034c58     MSVCRT:default_local_stdio_options.obj
 0003:00000c60       __scrt_current_native_startup_state 0000000180034c60     MSVCRT:utility.obj
 0003:00000c68       __scrt_native_startup_lock 0000000180034c68     MSVCRT:utility.obj
 0003:00000ca8       __scrt_debugger_hook_flag  0000000180034ca8     MSVCRT:utility_desktop.obj
 0003:00000cb0       __dyn_tls_init_callback    0000000180034cb0     <common>
 0005:00000100       __common_ssin_reduction_data 0000000180037100     MSVCRT:svml_s_sin_data.obj
 0005:00000d00       __common_ssin_data         0000000180037d00     MSVCRT:svml_s_sin_data.obj

 entry point at        0001:00027dc4

 Static symbols

 0000:fffc4000       .debug$S                   0000000180000000     PhysXCooking_64.exp
 0000:fffc4000       .debug$S                   0000000180000000     ucrt:api-ms-win-crt-heap-l1-1-0.dll
 0000:fffc4000       .debug$S                   0000000180000000     ucrt:api-ms-win-crt-math-l1-1-0.dll
 0000:fffc4000       .debug$S                   0000000180000000     ucrt:api-ms-win-crt-math-l1-1-0.dll
 0000:fffc4000       .debug$S                   0000000180000000     ucrt:api-ms-win-crt-math-l1-1-0.dll
 0000:fffc4000       .debug$S                   0000000180000000     ucrt:api-ms-win-crt-math-l1-1-0.dll
 0000:fffc4000       .debug$S                   0000000180000000     ucrt:api-ms-win-crt-runtime-l1-1-0.dll
 0000:fffc4000       .debug$S                   0000000180000000     ucrt:api-ms-win-crt-runtime-l1-1-0.dll
 0000:fffc4000       .debug$S                   0000000180000000     ucrt:api-ms-win-crt-runtime-l1-1-0.dll
 0000:fffc4000       .debug$S                   0000000180000000     ucrt:api-ms-win-crt-runtime-l1-1-0.dll
 0000:fffc4000       .debug$S                   0000000180000000     ucrt:api-ms-win-crt-runtime-l1-1-0.dll
 0000:fffc4000       .debug$S                   0000000180000000     ucrt:api-ms-win-crt-runtime-l1-1-0.dll
 0000:fffc4000       .debug$S                   0000000180000000     ucrt:api-ms-win-crt-runtime-l1-1-0.dll
 0000:fffc4000       .debug$S                   0000000180000000     ucrt:api-ms-win-crt-runtime-l1-1-0.dll
 0000:fffc4000       .debug$S                   0000000180000000     ucrt:api-ms-win-crt-runtime-l1-1-0.dll
 0000:fffc4000       .debug$S                   0000000180000000     ucrt:api-ms-win-crt-runtime-l1-1-0.dll
 0000:fffc4000       .debug$S                   0000000180000000     ucrt:api-ms-win-crt-runtime-l1-1-0.dll
 0000:fffc4000       .debug$S                   0000000180000000     ucrt:api-ms-win-crt-runtime-l1-1-0.dll
 0000:fffc4000       .debug$S                   0000000180000000     ucrt:api-ms-win-crt-string-l1-1-0.dll
 0000:fffc4000       .debug$S                   0000000180000000     kernel32:KERNEL32.dll
 0000:fffc4000       .debug$S                   0000000180000000     kernel32:KERNEL32.dll
 0000:fffc4000       .debug$S                   0000000180000000     kernel32:KERNEL32.dll
 0000:fffc4000       .debug$S                   0000000180000000     kernel32:KERNEL32.dll
 0000:fffc4000       .debug$S                   0000000180000000     kernel32:KERNEL32.dll
 0000:fffc4000       .debug$S                   0000000180000000     kernel32:KERNEL32.dll
 0000:fffc4000       .debug$S                   0000000180000000     kernel32:KERNEL32.dll
 0000:fffc4000       .debug$S                   0000000180000000     kernel32:KERNEL32.dll
 0000:fffc4000       .debug$S                   0000000180000000     kernel32:KERNEL32.dll
 0000:fffc4000       .debug$S                   0000000180000000     kernel32:KERNEL32.dll
 0000:fffc4000       .debug$S                   0000000180000000     kernel32:KERNEL32.dll
 0000:fffc4000       .debug$S                   0000000180000000     kernel32:KERNEL32.dll
 0000:fffc4000       .debug$S                   0000000180000000     kernel32:KERNEL32.dll
 0000:fffc4000       .debug$S                   0000000180000000     kernel32:KERNEL32.dll
 0000:fffc4000       .debug$S                   0000000180000000     kernel32:KERNEL32.dll
 0000:fffc4000       .debug$S                   0000000180000000     kernel32:KERNEL32.dll
 0000:fffc4000       .debug$S                   0000000180000000     kernel32:KERNEL32.dll
 0000:fffc4000       .debug$S                   0000000180000000     kernel32:KERNEL32.dll
 0000:fffc4000       .debug$S                   0000000180000000     kernel32:KERNEL32.dll
 0000:fffc4000       .debug$S                   0000000180000000     kernel32:KERNEL32.dll
 0000:fffc4000       .debug$S                   0000000180000000     kernel32:KERNEL32.dll
 0000:fffc4000       .debug$S                   0000000180000000     kernel32:KERNEL32.dll
 0000:fffc4000       .debug$S                   0000000180000000     kernel32:KERNEL32.dll
 0000:fffc4000       .debug$S                   0000000180000000     kernel32:KERNEL32.dll
 0000:fffc4000       .debug$S                   0000000180000000     vcruntime:VCRUNTIME140.dll
 0000:fffc4000       .debug$S                   0000000180000000     vcruntime:VCRUNTIME140.dll
 0000:fffc4000       .debug$S                   0000000180000000     vcruntime:VCRUNTIME140.dll
 0000:fffc4000       .debug$S                   0000000180000000     vcruntime:VCRUNTIME140.dll
 0000:fffc4000       .debug$S                   0000000180000000     vcruntime:VCRUNTIME140.dll
 0000:fffc4000       .debug$S                   0000000180000000     vcruntime:VCRUNTIME140.dll
 0000:fffc4000       .debug$S                   0000000180000000     vcruntime:VCRUNTIME140.dll
 0000:fffc4000       .debug$S                   0000000180000000     vcruntime:VCRUNTIME140.dll
 0000:fffc4000       .debug$S                   0000000180000000     vcruntime:VCRUNTIME140.dll
 0000:fffc4000       .debug$S                   0000000180000000     PhysXCommon_64:PhysXCommon_64.dll
 0000:fffc4000       .debug$S                   0000000180000000     PhysXCommon_64:PhysXCommon_64.dll
 0000:fffc4000       .debug$S                   0000000180000000     PhysXCommon_64:PhysXCommon_64.dll
 0000:fffc4000       .debug$S                   0000000180000000     PhysXCommon_64:PhysXCommon_64.dll
 0000:fffc4000       .debug$S                   0000000180000000     PhysXCommon_64:PhysXCommon_64.dll
 0000:fffc4000       .debug$S                   0000000180000000     PhysXCommon_64:PhysXCommon_64.dll
 0000:fffc4000       .debug$S                   0000000180000000     PhysXCommon_64:PhysXCommon_64.dll
 0000:fffc4000       .debug$S                   0000000180000000     PhysXCommon_64:PhysXCommon_64.dll
 0000:fffc4000       .debug$S                   0000000180000000     PhysXCommon_64:PhysXCommon_64.dll
 0000:fffc4000       .debug$S                   0000000180000000     PhysXCommon_64:PhysXCommon_64.dll
 0000:fffc4000       .debug$S                   0000000180000000     PhysXCommon_64:PhysXCommon_64.dll
 0000:fffc4000       .debug$S                   0000000180000000     PhysXCommon_64:PhysXCommon_64.dll
 0000:fffc4000       .debug$S                   0000000180000000     PhysXCommon_64:PhysXCommon_64.dll
 0000:fffc4000       .debug$S                   0000000180000000     PhysXCommon_64:PhysXCommon_64.dll
 0000:fffc4000       .debug$S                   0000000180000000     PhysXCommon_64:PhysXCommon_64.dll
 0000:fffc4000       .debug$S                   0000000180000000     PhysXCommon_64:PhysXCommon_64.dll
 0000:fffc4000       .debug$S                   0000000180000000     PhysXCommon_64:PhysXCommon_64.dll
 0000:fffc4000       .debug$S                   0000000180000000     PhysXCommon_64:PhysXCommon_64.dll
 0000:fffc4000       .debug$S                   0000000180000000     PhysXCommon_64:PhysXCommon_64.dll
 0000:fffc4000       .debug$S                   0000000180000000     PhysXCommon_64:PhysXCommon_64.dll
 0000:fffc4000       .debug$S                   0000000180000000     PhysXCommon_64:PhysXCommon_64.dll
 0000:fffc4000       .debug$S                   0000000180000000     PhysXCommon_64:PhysXCommon_64.dll
 0000:fffc4000       .debug$S                   0000000180000000     PhysXCommon_64:PhysXCommon_64.dll
 0000:fffc4000       .debug$S                   0000000180000000     PhysXCommon_64:PhysXCommon_64.dll
 0000:fffc4000       .debug$S                   0000000180000000     PhysXCommon_64:PhysXCommon_64.dll
 0000:fffc4000       .debug$S                   0000000180000000     PhysXCommon_64:PhysXCommon_64.dll
 0000:fffc4000       .debug$S                   0000000180000000     PhysXCommon_64:PhysXCommon_64.dll
 0000:fffc4000       .debug$S                   0000000180000000     PhysXCommon_64:PhysXCommon_64.dll
 0000:fffc4000       .debug$S                   0000000180000000     PhysXCommon_64:PhysXCommon_64.dll
 0000:fffc4000       .debug$S                   0000000180000000     PhysXCommon_64:PhysXCommon_64.dll
 0000:fffc4000       .debug$S                   0000000180000000     PhysXCommon_64:PhysXCommon_64.dll
 0000:fffc4000       .debug$S                   0000000180000000     PhysXCommon_64:PhysXCommon_64.dll
 0000:fffc4000       .debug$S                   0000000180000000     PhysXCommon_64:PhysXCommon_64.dll
 0000:fffc4000       .debug$S                   0000000180000000     PhysXCommon_64:PhysXCommon_64.dll
 0000:fffc4000       .debug$S                   0000000180000000     PhysXCommon_64:PhysXCommon_64.dll
 0000:fffc4000       .debug$S                   0000000180000000     PhysXCommon_64:PhysXCommon_64.dll
 0000:fffc4000       .debug$S                   0000000180000000     PhysXCommon_64:PhysXCommon_64.dll
 0000:fffc4000       .debug$S                   0000000180000000     PhysXCommon_64:PhysXCommon_64.dll
 0000:fffc4000       .debug$S                   0000000180000000     PhysXFoundation_64:PhysXFoundation_64.dll
 0000:fffc4000       .debug$S                   0000000180000000     PhysXFoundation_64:PhysXFoundation_64.dll
 0000:fffc4000       .debug$S                   0000000180000000     PhysXFoundation_64:PhysXFoundation_64.dll
 0000:fffc4000       .debug$S                   0000000180000000     PhysXFoundation_64:PhysXFoundation_64.dll
 0000:fffc4000       .debug$S                   0000000180000000     PhysXFoundation_64:PhysXFoundation_64.dll
 0000:fffc4000       .debug$S                   0000000180000000     PhysXFoundation_64:PhysXFoundation_64.dll
 0000:fffc4000       .debug$S                   0000000180000000     PhysXFoundation_64:PhysXFoundation_64.dll
 0000:fffc4000       .debug$S                   0000000180000000     PhysXFoundation_64:PhysXFoundation_64.dll
 0000:fffc4000       .debug$S                   0000000180000000     PhysXFoundation_64:PhysXFoundation_64.dll
 0000:fffc4000       .debug$S                   0000000180000000     PhysXFoundation_64:PhysXFoundation_64.dll
 0000:fffc4000       .debug$S                   0000000180000000     PhysXFoundation_64:PhysXFoundation_64.dll
 0001:00000000       ??__EmaxFError@_VecMathTests@aos@shdfnd@physx@@YAXXZ 0000000180001000 f   Cooking.obj
 0001:00000010       ??__EmaxV3Error@_VecMathTests@aos@shdfnd@physx@@YAXXZ 0000000180001010 f   Cooking.obj
 0001:00000020       ??__EmaxV4Error@_VecMathTests@aos@shdfnd@physx@@YAXXZ 0000000180001020 f   Cooking.obj
 0001:00000030       ??__EminFError@_VecMathTests@aos@shdfnd@physx@@YAXXZ 0000000180001030 f   Cooking.obj
 0001:00000040       ??__EminV3Error@_VecMathTests@aos@shdfnd@physx@@YAXXZ 0000000180001040 f   Cooking.obj
 0001:00000050       ??__EminV4Error@_VecMathTests@aos@shdfnd@physx@@YAXXZ 0000000180001050 f   Cooking.obj
 0001:00000060       ??__EmaxFError@_VecMathTests@aos@shdfnd@physx@@YAXXZ 0000000180001060 f   BVHStructureBuilder.obj
 0001:00000070       ??__EmaxV3Error@_VecMathTests@aos@shdfnd@physx@@YAXXZ 0000000180001070 f   BVHStructureBuilder.obj
 0001:00000080       ??__EmaxV4Error@_VecMathTests@aos@shdfnd@physx@@YAXXZ 0000000180001080 f   BVHStructureBuilder.obj
 0001:00000090       ??__EminFError@_VecMathTests@aos@shdfnd@physx@@YAXXZ 0000000180001090 f   BVHStructureBuilder.obj
 0001:000000a0       ??__EminV3Error@_VecMathTests@aos@shdfnd@physx@@YAXXZ 00000001800010a0 f   BVHStructureBuilder.obj
 0001:000000b0       ??__EminV4Error@_VecMathTests@aos@shdfnd@physx@@YAXXZ 00000001800010b0 f   BVHStructureBuilder.obj
 0001:000000c0       ??__EmaxFError@_VecMathTests@aos@shdfnd@physx@@YAXXZ 00000001800010c0 f   RTreeCooking.obj
 0001:000000d0       ??__EmaxV3Error@_VecMathTests@aos@shdfnd@physx@@YAXXZ 00000001800010d0 f   RTreeCooking.obj
 0001:000000e0       ??__EmaxV4Error@_VecMathTests@aos@shdfnd@physx@@YAXXZ 00000001800010e0 f   RTreeCooking.obj
 0001:000000f0       ??__EminFError@_VecMathTests@aos@shdfnd@physx@@YAXXZ 00000001800010f0 f   RTreeCooking.obj
 0001:00000100       ??__EminV3Error@_VecMathTests@aos@shdfnd@physx@@YAXXZ 0000000180001100 f   RTreeCooking.obj
 0001:00000110       ??__EminV4Error@_VecMathTests@aos@shdfnd@physx@@YAXXZ 0000000180001110 f   RTreeCooking.obj
 0001:00000120       ??__EmaxFError@_VecMathTests@aos@shdfnd@physx@@YAXXZ 0000000180001120 f   MeshBuilder.obj
 0001:00000130       ??__EmaxV3Error@_VecMathTests@aos@shdfnd@physx@@YAXXZ 0000000180001130 f   MeshBuilder.obj
 0001:00000140       ??__EmaxV4Error@_VecMathTests@aos@shdfnd@physx@@YAXXZ 0000000180001140 f   MeshBuilder.obj
 0001:00000150       ??__EminFError@_VecMathTests@aos@shdfnd@physx@@YAXXZ 0000000180001150 f   MeshBuilder.obj
 0001:00000160       ??__EminV3Error@_VecMathTests@aos@shdfnd@physx@@YAXXZ 0000000180001160 f   MeshBuilder.obj
 0001:00000170       ??__EminV4Error@_VecMathTests@aos@shdfnd@physx@@YAXXZ 0000000180001170 f   MeshBuilder.obj
 0001:00000180       ??__EmaxFError@_VecMathTests@aos@shdfnd@physx@@YAXXZ 0000000180001180 f   TriangleMeshBuilder.obj
 0001:00000190       ??__EmaxV3Error@_VecMathTests@aos@shdfnd@physx@@YAXXZ 0000000180001190 f   TriangleMeshBuilder.obj
 0001:000001a0       ??__EmaxV4Error@_VecMathTests@aos@shdfnd@physx@@YAXXZ 00000001800011a0 f   TriangleMeshBuilder.obj
 0001:000001b0       ??__EminFError@_VecMathTests@aos@shdfnd@physx@@YAXXZ 00000001800011b0 f   TriangleMeshBuilder.obj
 0001:000001c0       ??__EminV3Error@_VecMathTests@aos@shdfnd@physx@@YAXXZ 00000001800011c0 f   TriangleMeshBuilder.obj
 0001:000001d0       ??__EminV4Error@_VecMathTests@aos@shdfnd@physx@@YAXXZ 00000001800011d0 f   TriangleMeshBuilder.obj
 0001:000001e0       ??__EmaxFError@_VecMathTests@aos@shdfnd@physx@@YAXXZ 00000001800011e0 f   BigConvexDataBuilder.obj
 0001:000001f0       ??__EmaxV3Error@_VecMathTests@aos@shdfnd@physx@@YAXXZ 00000001800011f0 f   BigConvexDataBuilder.obj
 0001:00000200       ??__EmaxV4Error@_VecMathTests@aos@shdfnd@physx@@YAXXZ 0000000180001200 f   BigConvexDataBuilder.obj
 0001:00000210       ??__EminFError@_VecMathTests@aos@shdfnd@physx@@YAXXZ 0000000180001210 f   BigConvexDataBuilder.obj
 0001:00000220       ??__EminV3Error@_VecMathTests@aos@shdfnd@physx@@YAXXZ 0000000180001220 f   BigConvexDataBuilder.obj
 0001:00000230       ??__EminV4Error@_VecMathTests@aos@shdfnd@physx@@YAXXZ 0000000180001230 f   BigConvexDataBuilder.obj
 0001:00000240       ??__EmaxFError@_VecMathTests@aos@shdfnd@physx@@YAXXZ 0000000180001240 f   ConvexHullBuilder.obj
 0001:00000250       ??__EmaxV3Error@_VecMathTests@aos@shdfnd@physx@@YAXXZ 0000000180001250 f   ConvexHullBuilder.obj
 0001:00000260       ??__EmaxV4Error@_VecMathTests@aos@shdfnd@physx@@YAXXZ 0000000180001260 f   ConvexHullBuilder.obj
 0001:00000270       ??__EminFError@_VecMathTests@aos@shdfnd@physx@@YAXXZ 0000000180001270 f   ConvexHullBuilder.obj
 0001:00000280       ??__EminV3Error@_VecMathTests@aos@shdfnd@physx@@YAXXZ 0000000180001280 f   ConvexHullBuilder.obj
 0001:00000290       ??__EminV4Error@_VecMathTests@aos@shdfnd@physx@@YAXXZ 0000000180001290 f   ConvexHullBuilder.obj
 0001:000002a0       ??__EmaxFError@_VecMathTests@aos@shdfnd@physx@@YAXXZ 00000001800012a0 f   ConvexHullUtils.obj
 0001:000002b0       ??__EmaxV3Error@_VecMathTests@aos@shdfnd@physx@@YAXXZ 00000001800012b0 f   ConvexHullUtils.obj
 0001:000002c0       ??__EmaxV4Error@_VecMathTests@aos@shdfnd@physx@@YAXXZ 00000001800012c0 f   ConvexHullUtils.obj
 0001:000002d0       ??__EminFError@_VecMathTests@aos@shdfnd@physx@@YAXXZ 00000001800012d0 f   ConvexHullUtils.obj
 0001:000002e0       ??__EminV3Error@_VecMathTests@aos@shdfnd@physx@@YAXXZ 00000001800012e0 f   ConvexHullUtils.obj
 0001:000002f0       ??__EminV4Error@_VecMathTests@aos@shdfnd@physx@@YAXXZ 00000001800012f0 f   ConvexHullUtils.obj
 0001:00000300       ??__EmaxFError@_VecMathTests@aos@shdfnd@physx@@YAXXZ 0000000180001300 f   ConvexMeshBuilder.obj
 0001:00000310       ??__EmaxV3Error@_VecMathTests@aos@shdfnd@physx@@YAXXZ 0000000180001310 f   ConvexMeshBuilder.obj
 0001:00000320       ??__EmaxV4Error@_VecMathTests@aos@shdfnd@physx@@YAXXZ 0000000180001320 f   ConvexMeshBuilder.obj
 0001:00000330       ??__EminFError@_VecMathTests@aos@shdfnd@physx@@YAXXZ 0000000180001330 f   ConvexMeshBuilder.obj
 0001:00000340       ??__EminV3Error@_VecMathTests@aos@shdfnd@physx@@YAXXZ 0000000180001340 f   ConvexMeshBuilder.obj
 0001:00000350       ??__EminV4Error@_VecMathTests@aos@shdfnd@physx@@YAXXZ 0000000180001350 f   ConvexMeshBuilder.obj
 0001:00000360       ??__EmaxFError@_VecMathTests@aos@shdfnd@physx@@YAXXZ 0000000180001360 f   VolumeIntegration.obj
 0001:00000370       ??__EmaxV3Error@_VecMathTests@aos@shdfnd@physx@@YAXXZ 0000000180001370 f   VolumeIntegration.obj
 0001:00000380       ??__EmaxV4Error@_VecMathTests@aos@shdfnd@physx@@YAXXZ 0000000180001380 f   VolumeIntegration.obj
 0001:00000390       ??__EminFError@_VecMathTests@aos@shdfnd@physx@@YAXXZ 0000000180001390 f   VolumeIntegration.obj
 0001:000003a0       ??__EminV3Error@_VecMathTests@aos@shdfnd@physx@@YAXXZ 00000001800013a0 f   VolumeIntegration.obj
 0001:000003b0       ??__EminV4Error@_VecMathTests@aos@shdfnd@physx@@YAXXZ 00000001800013b0 f   VolumeIntegration.obj
 0001:000006e0       ?CreateDatabase@@YA_NPEAVAdjTriangle@physx@@IPEBVAdjEdge@@AEBUADJACENCIESCREATE@2@@Z 00000001800016e0 f   Adjacencies.obj
 0001:00000d50       ?UpdateLink@@YA_NIIIIPEAVAdjTriangle@physx@@AEBUADJACENCIESCREATE@2@@Z 0000000180001d50 f   Adjacencies.obj
 0001:00008fd0       ?buildFromBounds@physx@@YAXAEAURTree@Gu@1@PEBUPxBounds3V@1@IAEAV?$Array@IV?$ReflectionAllocator@I@shdfnd@physx@@@shdfnd@1@PEAURemapCallback@RTreeCooker@1@AEAT__m128@@4MW4Enum@PxMeshCookingHint@1@@Z 0000000180009fd0 f   RTreeCooking.obj
 0001:0000d0b0       ?buildAdjacencies@physx@@YAXPEAUuint4@1@PEAVPxVec3@1@PEBV31@PEBUuint3@1@I@Z 000000018000e0b0 f   TriangleMeshBuilder.obj
 0001:0000e8f0       ?findAdjacent@physx@@YAIPEBVPxVec3@1@0PEBUuint3@1@IIIAEBVPxPlane@1@PEAUEdgeTriLookup@1@I@Z 000000018000f8f0 f   TriangleMeshBuilder.obj
 0001:00013170       ?checkPointsAABBValidity@local@@YA_NIPEBVPxVec3@physx@@IMMAEAV23@1AEAIPEAV23@_N@Z 0000000180014170 f   ConvexHullLib.obj
 0001:00018520       ?ComputeInternalExtent@@YAXAEAUConvexHullData@Gu@physx@@PEBUHullPolygonData@23@@Z 0000000180019520 f   ConvexMeshBuilder.obj
 0001:00019a80       ?CheckFloodFillFace@Local@?7??extractHullPolygons@@YA_NAEAIAEAV?$Array@IV?$ReflectionAllocator@I@shdfnd@physx@@@shdfnd@physx@@AEBVConvexPolygonsBuilder@5@PEAV345@1@Z@SA_NIPEBVAdjTriangle@5@PEBI@Z 000000018001aa80 f   ConvexPolygonsBuilder.obj
 0001:0001a060       ?FloodFill@Local@?7??extractHullPolygons@@YA_NAEAIAEAV?$Array@IV?$ReflectionAllocator@I@shdfnd@physx@@@shdfnd@physx@@AEBVConvexPolygonsBuilder@5@PEAV345@1@Z@SAX1PEBVAdjTriangle@5@IPEA_N@Z 000000018001b060 f   ConvexPolygonsBuilder.obj
 0001:0001a140       ?TestDuplicateTriangles@@YA_NAEAIPEAU?$TriangleT@I@Gu@physx@@_N@Z 000000018001b140 f   ConvexPolygonsBuilder.obj
 0001:0001a310       ?checkRedundantVertices@@YAXAEAIAEAV?$Array@IV?$ReflectionAllocator@I@shdfnd@physx@@@shdfnd@physx@@AEBVConvexPolygonsBuilder@3@11@Z 000000018001b310 f   ConvexPolygonsBuilder.obj
 0001:0001bb70       ?computeNewellPlane@@YA_NAEAVPxPlane@physx@@IPEBEPEBVPxVec3@2@@Z 000000018001cb70 f   ConvexPolygonsBuilder.obj
 0001:0001d3a0       ?extractHullPolygons@@YA_NAEAIAEAV?$Array@IV?$ReflectionAllocator@I@shdfnd@physx@@@shdfnd@physx@@AEBVConvexPolygonsBuilder@3@PEAV123@1@Z 000000018001e3a0 f   ConvexPolygonsBuilder.obj
 0001:0001ddf0       ?findLineStrip@@YA_NAEAV?$Array@IV?$ReflectionAllocator@I@shdfnd@physx@@@shdfnd@physx@@AEBV?$Array@VPair@@V?$ReflectionAllocator@VPair@@@shdfnd@physx@@@23@@Z 000000018001edf0 f   ConvexPolygonsBuilder.obj
 0001:00025aa0       ?computeVolumeIntegrals@VolumeIntegratorEberly@?A0xd740b572@physx@@QEAA_NAEAUPxIntegrals@3@AEBVPxVec3@3@@Z 0000000180026aa0 f   VolumeIntegration.obj
 0001:00026610       ?computeVolumeIntegralsSIMD@VolumeIntegratorEberly@?A0xd740b572@physx@@QEAA_NAEAUPxIntegrals@3@AEBVPxVec3@3@@Z 0000000180027610 f   VolumeIntegration.obj
 0001:00026cf0       $LN24                      0000000180027cf0     WindowsCookingDelayLoadHook.obj
 0001:00027158       ??$GuardedWrite@V<lambda_1>@?1??__delayLoadHelper2@@YAP6A_JXZPEBUImgDelayDescr@@PEAP6A_JXZ@Z@@@YAXPEAX_KV<lambda_1>@?1??__delayLoadHelper2@@YAP6A_JXZPEBUImgDelayDescr@@PEAP6A_JXZ@Z@@Z 0000000180028158 f   Delayimp:delayhlp.obj
 0001:000279d0       $$000000                   00000001800289d0     MSVCRT:chkstk.obj
 0001:00027a40       $$000000                   0000000180028a40     MSVCRT:svml_ssinf4_dispatch.obj
 0001:00027ab0       ?dllmain_crt_dispatch@@YAHQEAUHINSTANCE__@@KQEAX@Z 0000000180028ab0 f   MSVCRT:dll_dllmain.obj
 0001:00027b00       ?dllmain_crt_process_attach@@YAHQEAUHINSTANCE__@@QEAX@Z 0000000180028b00 f   MSVCRT:dll_dllmain.obj
 0001:00027c18       ?dllmain_crt_process_detach@@YAH_N@Z 0000000180028c18 f   MSVCRT:dll_dllmain.obj
 0001:00027c9c       ?dllmain_dispatch@@YAHQEAUHINSTANCE__@@KQEAX@Z 0000000180028c9c f   MSVCRT:dll_dllmain.obj
 0001:000280a0       $$000000                   00000001800290a0     MSVCRT:svml_ssinf4_sse2.obj
 0001:000289e0       $$000000                   00000001800299e0     MSVCRT:svml_ssinf4_sse4.obj
 0001:00029750       $$000000                   000000018002a750     MSVCRT:svml_s_sin_cout.obj
 0001:00029840       $$000000                   000000018002a840     MSVCRT:guard_dispatch.obj
 0001:00029860       $$000000                   000000018002a860     MSVCRT:guard_xfg_dispatch.obj
 0001:00029876       ?fin$0@?0??dllmain_crt_process_attach@@YAHQEAUHINSTANCE__@@QEAX@Z@4HA 000000018002a876 f   MSVCRT:dll_dllmain.obj
 0001:0002988d       ?fin$0@?0??dllmain_crt_process_detach@@YAH_N@Z@4HA 000000018002a88d f   MSVCRT:dll_dllmain.obj
 0001:000298a6       ?fin$1@?0??dllmain_crt_process_detach@@YAH_N@Z@4HA 000000018002a8a6 f   MSVCRT:dll_dllmain.obj
 0001:000298ba       ?filt$0@?0??dllmain_dispatch@@YAHQEAUHINSTANCE__@@KQEAX@Z@4HA 000000018002a8ba f   MSVCRT:dll_dllmain.obj
 0001:000298f0       __scrt_is_nonwritable_in_current_image$filt$0 000000018002a8f0 f   MSVCRT:utility.obj
 0002:000001c0       ?minFError$initializer$@_VecMathTests@aos@shdfnd@physx@@3P6AXXZEA 000000018002b1c0     Cooking.obj
 0002:000001c8       ?maxFError$initializer$@_VecMathTests@aos@shdfnd@physx@@3P6AXXZEA 000000018002b1c8     Cooking.obj
 0002:000001d0       ?minV3Error$initializer$@_VecMathTests@aos@shdfnd@physx@@3P6AXXZEA 000000018002b1d0     Cooking.obj
 0002:000001d8       ?maxV3Error$initializer$@_VecMathTests@aos@shdfnd@physx@@3P6AXXZEA 000000018002b1d8     Cooking.obj
 0002:000001e0       ?minV4Error$initializer$@_VecMathTests@aos@shdfnd@physx@@3P6AXXZEA 000000018002b1e0     Cooking.obj
 0002:000001e8       ?maxV4Error$initializer$@_VecMathTests@aos@shdfnd@physx@@3P6AXXZEA 000000018002b1e8     Cooking.obj
 0002:000001f0       ?minFError$initializer$@_VecMathTests@aos@shdfnd@physx@@3P6AXXZEA 000000018002b1f0     BVHStructureBuilder.obj
 0002:000001f8       ?maxFError$initializer$@_VecMathTests@aos@shdfnd@physx@@3P6AXXZEA 000000018002b1f8     BVHStructureBuilder.obj
 0002:00000200       ?minV3Error$initializer$@_VecMathTests@aos@shdfnd@physx@@3P6AXXZEA 000000018002b200     BVHStructureBuilder.obj
 0002:00000208       ?maxV3Error$initializer$@_VecMathTests@aos@shdfnd@physx@@3P6AXXZEA 000000018002b208     BVHStructureBuilder.obj
 0002:00000210       ?minV4Error$initializer$@_VecMathTests@aos@shdfnd@physx@@3P6AXXZEA 000000018002b210     BVHStructureBuilder.obj
 0002:00000218       ?maxV4Error$initializer$@_VecMathTests@aos@shdfnd@physx@@3P6AXXZEA 000000018002b218     BVHStructureBuilder.obj
 0002:00000220       ?minFError$initializer$@_VecMathTests@aos@shdfnd@physx@@3P6AXXZEA 000000018002b220     RTreeCooking.obj
 0002:00000228       ?maxFError$initializer$@_VecMathTests@aos@shdfnd@physx@@3P6AXXZEA 000000018002b228     RTreeCooking.obj
 0002:00000230       ?minV3Error$initializer$@_VecMathTests@aos@shdfnd@physx@@3P6AXXZEA 000000018002b230     RTreeCooking.obj
 0002:00000238       ?maxV3Error$initializer$@_VecMathTests@aos@shdfnd@physx@@3P6AXXZEA 000000018002b238     RTreeCooking.obj
 0002:00000240       ?minV4Error$initializer$@_VecMathTests@aos@shdfnd@physx@@3P6AXXZEA 000000018002b240     RTreeCooking.obj
 0002:00000248       ?maxV4Error$initializer$@_VecMathTests@aos@shdfnd@physx@@3P6AXXZEA 000000018002b248     RTreeCooking.obj
 0002:00000250       ?minFError$initializer$@_VecMathTests@aos@shdfnd@physx@@3P6AXXZEA 000000018002b250     MeshBuilder.obj
 0002:00000258       ?maxFError$initializer$@_VecMathTests@aos@shdfnd@physx@@3P6AXXZEA 000000018002b258     MeshBuilder.obj
 0002:00000260       ?minV3Error$initializer$@_VecMathTests@aos@shdfnd@physx@@3P6AXXZEA 000000018002b260     MeshBuilder.obj
 0002:00000268       ?maxV3Error$initializer$@_VecMathTests@aos@shdfnd@physx@@3P6AXXZEA 000000018002b268     MeshBuilder.obj
 0002:00000270       ?minV4Error$initializer$@_VecMathTests@aos@shdfnd@physx@@3P6AXXZEA 000000018002b270     MeshBuilder.obj
 0002:00000278       ?maxV4Error$initializer$@_VecMathTests@aos@shdfnd@physx@@3P6AXXZEA 000000018002b278     MeshBuilder.obj
 0002:00000280       ?minFError$initializer$@_VecMathTests@aos@shdfnd@physx@@3P6AXXZEA 000000018002b280     TriangleMeshBuilder.obj
 0002:00000288       ?maxFError$initializer$@_VecMathTests@aos@shdfnd@physx@@3P6AXXZEA 000000018002b288     TriangleMeshBuilder.obj
 0002:00000290       ?minV3Error$initializer$@_VecMathTests@aos@shdfnd@physx@@3P6AXXZEA 000000018002b290     TriangleMeshBuilder.obj
 0002:00000298       ?maxV3Error$initializer$@_VecMathTests@aos@shdfnd@physx@@3P6AXXZEA 000000018002b298     TriangleMeshBuilder.obj
 0002:000002a0       ?minV4Error$initializer$@_VecMathTests@aos@shdfnd@physx@@3P6AXXZEA 000000018002b2a0     TriangleMeshBuilder.obj
 0002:000002a8       ?maxV4Error$initializer$@_VecMathTests@aos@shdfnd@physx@@3P6AXXZEA 000000018002b2a8     TriangleMeshBuilder.obj
 0002:000002b0       ?minFError$initializer$@_VecMathTests@aos@shdfnd@physx@@3P6AXXZEA 000000018002b2b0     BigConvexDataBuilder.obj
 0002:000002b8       ?maxFError$initializer$@_VecMathTests@aos@shdfnd@physx@@3P6AXXZEA 000000018002b2b8     BigConvexDataBuilder.obj
 0002:000002c0       ?minV3Error$initializer$@_VecMathTests@aos@shdfnd@physx@@3P6AXXZEA 000000018002b2c0     BigConvexDataBuilder.obj
 0002:000002c8       ?maxV3Error$initializer$@_VecMathTests@aos@shdfnd@physx@@3P6AXXZEA 000000018002b2c8     BigConvexDataBuilder.obj
 0002:000002d0       ?minV4Error$initializer$@_VecMathTests@aos@shdfnd@physx@@3P6AXXZEA 000000018002b2d0     BigConvexDataBuilder.obj
 0002:000002d8       ?maxV4Error$initializer$@_VecMathTests@aos@shdfnd@physx@@3P6AXXZEA 000000018002b2d8     BigConvexDataBuilder.obj
 0002:000002e0       ?minFError$initializer$@_VecMathTests@aos@shdfnd@physx@@3P6AXXZEA 000000018002b2e0     ConvexHullBuilder.obj
 0002:000002e8       ?maxFError$initializer$@_VecMathTests@aos@shdfnd@physx@@3P6AXXZEA 000000018002b2e8     ConvexHullBuilder.obj
 0002:000002f0       ?minV3Error$initializer$@_VecMathTests@aos@shdfnd@physx@@3P6AXXZEA 000000018002b2f0     ConvexHullBuilder.obj
 0002:000002f8       ?maxV3Error$initializer$@_VecMathTests@aos@shdfnd@physx@@3P6AXXZEA 000000018002b2f8     ConvexHullBuilder.obj
 0002:00000300       ?minV4Error$initializer$@_VecMathTests@aos@shdfnd@physx@@3P6AXXZEA 000000018002b300     ConvexHullBuilder.obj
 0002:00000308       ?maxV4Error$initializer$@_VecMathTests@aos@shdfnd@physx@@3P6AXXZEA 000000018002b308     ConvexHullBuilder.obj
 0002:00000310       ?minFError$initializer$@_VecMathTests@aos@shdfnd@physx@@3P6AXXZEA 000000018002b310     ConvexHullUtils.obj
 0002:00000318       ?maxFError$initializer$@_VecMathTests@aos@shdfnd@physx@@3P6AXXZEA 000000018002b318     ConvexHullUtils.obj
 0002:00000320       ?minV3Error$initializer$@_VecMathTests@aos@shdfnd@physx@@3P6AXXZEA 000000018002b320     ConvexHullUtils.obj
 0002:00000328       ?maxV3Error$initializer$@_VecMathTests@aos@shdfnd@physx@@3P6AXXZEA 000000018002b328     ConvexHullUtils.obj
 0002:00000330       ?minV4Error$initializer$@_VecMathTests@aos@shdfnd@physx@@3P6AXXZEA 000000018002b330     ConvexHullUtils.obj
 0002:00000338       ?maxV4Error$initializer$@_VecMathTests@aos@shdfnd@physx@@3P6AXXZEA 000000018002b338     ConvexHullUtils.obj
 0002:00000340       ?minFError$initializer$@_VecMathTests@aos@shdfnd@physx@@3P6AXXZEA 000000018002b340     ConvexMeshBuilder.obj
 0002:00000348       ?maxFError$initializer$@_VecMathTests@aos@shdfnd@physx@@3P6AXXZEA 000000018002b348     ConvexMeshBuilder.obj
 0002:00000350       ?minV3Error$initializer$@_VecMathTests@aos@shdfnd@physx@@3P6AXXZEA 000000018002b350     ConvexMeshBuilder.obj
 0002:00000358       ?maxV3Error$initializer$@_VecMathTests@aos@shdfnd@physx@@3P6AXXZEA 000000018002b358     ConvexMeshBuilder.obj
 0002:00000360       ?minV4Error$initializer$@_VecMathTests@aos@shdfnd@physx@@3P6AXXZEA 000000018002b360     ConvexMeshBuilder.obj
 0002:00000368       ?maxV4Error$initializer$@_VecMathTests@aos@shdfnd@physx@@3P6AXXZEA 000000018002b368     ConvexMeshBuilder.obj
 0002:00000370       ?minFError$initializer$@_VecMathTests@aos@shdfnd@physx@@3P6AXXZEA 000000018002b370     VolumeIntegration.obj
 0002:00000378       ?maxFError$initializer$@_VecMathTests@aos@shdfnd@physx@@3P6AXXZEA 000000018002b378     VolumeIntegration.obj
 0002:00000380       ?minV3Error$initializer$@_VecMathTests@aos@shdfnd@physx@@3P6AXXZEA 000000018002b380     VolumeIntegration.obj
 0002:00000388       ?maxV3Error$initializer$@_VecMathTests@aos@shdfnd@physx@@3P6AXXZEA 000000018002b388     VolumeIntegration.obj
 0002:00000390       ?minV4Error$initializer$@_VecMathTests@aos@shdfnd@physx@@3P6AXXZEA 000000018002b390     VolumeIntegration.obj
 0002:00000398       ?maxV4Error$initializer$@_VecMathTests@aos@shdfnd@physx@@3P6AXXZEA 000000018002b398     VolumeIntegration.obj
 0002:00000540       ?minus1w@?A0x89be7b49@aos@shdfnd@physx@@3QBMB 000000018002b540     Cooking.obj
 0002:00000550       ?gMaskXYZ@internalWindowsSimd@aos@shdfnd@physx@@3QBIB 000000018002b550     Cooking.obj
 0002:00000e00       ?minus1w@?A0x1afa70d8@aos@shdfnd@physx@@3QBMB 000000018002be00     BVHStructureBuilder.obj
 0002:00000e10       ?gMaskXYZ@internalWindowsSimd@aos@shdfnd@physx@@3QBIB 000000018002be10     BVHStructureBuilder.obj
 0002:00000ec0       ?minus1w@?A0x7fb6e58e@aos@shdfnd@physx@@3QBMB 000000018002bec0     RTreeCooking.obj
 0002:00000ed0       ?gMaskXYZ@internalWindowsSimd@aos@shdfnd@physx@@3QBIB 000000018002bed0     RTreeCooking.obj
 0002:00000f18       ?stopAtTrisPerPage@physx@@3QBIB 000000018002bf18     RTreeCooking.obj
 0002:00000f58       ?stopAtTrisPerLeaf@physx@@3QBIB 000000018002bf58     RTreeCooking.obj
 0002:00001190       ?minus1w@?A0x8dbb6e37@aos@shdfnd@physx@@3QBMB 000000018002c190     MeshBuilder.obj
 0002:000011a0       ?gMaskXYZ@internalWindowsSimd@aos@shdfnd@physx@@3QBIB 000000018002c1a0     MeshBuilder.obj
 0002:000011c0       ?minus1w@?A0xb259288a@aos@shdfnd@physx@@3QBMB 000000018002c1c0     TriangleMeshBuilder.obj
 0002:000011d0       ?gMaskXYZ@internalWindowsSimd@aos@shdfnd@physx@@3QBIB 000000018002c1d0     TriangleMeshBuilder.obj
 0002:00001620       ?minus1w@?A0xbb38e494@aos@shdfnd@physx@@3QBMB 000000018002c620     BigConvexDataBuilder.obj
 0002:00001630       ?gMaskXYZ@internalWindowsSimd@aos@shdfnd@physx@@3QBIB 000000018002c630     BigConvexDataBuilder.obj
 0002:000016e0       ?minus1w@?A0x56aea656@aos@shdfnd@physx@@3QBMB 000000018002c6e0     ConvexHullBuilder.obj
 0002:000016f0       ?gMaskXYZ@internalWindowsSimd@aos@shdfnd@physx@@3QBIB 000000018002c6f0     ConvexHullBuilder.obj
 0002:00001bd0       ?minus1w@?A0x89f18727@aos@shdfnd@physx@@3QBMB 000000018002cbd0     ConvexHullUtils.obj
 0002:00001be0       ?gMaskXYZ@internalWindowsSimd@aos@shdfnd@physx@@3QBIB 000000018002cbe0     ConvexHullUtils.obj
 0002:00001cc0       ?minus1w@?A0x980a0603@aos@shdfnd@physx@@3QBMB 000000018002ccc0     ConvexMeshBuilder.obj
 0002:00001cd0       ?gMaskXYZ@internalWindowsSimd@aos@shdfnd@physx@@3QBIB 000000018002ccd0     ConvexMeshBuilder.obj
 0002:000022e0       ?minus1w@?A0xd740b572@aos@shdfnd@physx@@3QBMB 000000018002d2e0     VolumeIntegration.obj
 0002:000022f0       ?gMaskXYZ@internalWindowsSimd@aos@shdfnd@physx@@3QBIB 000000018002d2f0     VolumeIntegration.obj
 0002:00002470       L_abs_mask                 000000018002d470     MSVCRT:svml_ssinf4_dispatch.obj
 0002:00002480       L_real_one                 000000018002d480     MSVCRT:svml_ssinf4_dispatch.obj
 0002:00002490       L_one_half                 000000018002d490     MSVCRT:svml_ssinf4_dispatch.obj
 0002:000024a0       L_two_to_neg_13            000000018002d4a0     MSVCRT:svml_ssinf4_dispatch.obj
 0002:000024b0       L_pi_over_two              000000018002d4b0     MSVCRT:svml_ssinf4_dispatch.obj
 0002:000024c0       L_pi_over_two2             000000018002d4c0     MSVCRT:svml_ssinf4_dispatch.obj
 0002:00002c48       $unwind$??1Adjacencies@physx@@QEAA@XZ 000000018002dc48     Adjacencies.obj
 0002:00002c48       $unwind$??_EPxFoundation@physx@@MEAAPEAXI@Z 000000018002dc48     Adjacencies.obj
 0002:00002c48       $unwind$??0ConvexMeshBuilder@physx@@QEAA@_N@Z 000000018002dc48     ConvexMeshBuilder.obj
 0002:00002c48       $unwind$?isFinite@PxVec3@physx@@QEBA_NXZ 000000018002dc48     ConvexMeshBuilder.obj
 0002:00002c48       $unwind$??0ConvexPolygonsBuilder@physx@@QEAA@PEAUConvexHullData@Gu@1@_N@Z 000000018002dc48     ConvexPolygonsBuilder.obj
 0002:00002c48       $unwind$??_GCooking@physx@@UEAAPEAXI@Z 000000018002dc48     Cooking.obj
 0002:00002c48       $unwind$??_GPxBase@physx@@MEAAPEAXI@Z 000000018002dc48     Cooking.obj
 0002:00002c48       $unwind$??_GPxCooking@physx@@MEAAPEAXI@Z 000000018002dc48     Cooking.obj
 0002:00002c48       $unwind$?isKindOf@PxConvexMesh@physx@@MEBA_NPEBD@Z 000000018002dc48     Cooking.obj
 0002:00002c48       $unwind$?isKindOf@PxHeightField@physx@@MEBA_NPEBD@Z 000000018002dc48     Cooking.obj
 0002:00002c48       $unwind$??_GQuantizer@physx@@MEAAPEAXI@Z 000000018002dc48     Quantizer.obj
 0002:00002c48       $unwind$??1RTreeTriangleData@Gu@physx@@UEAA@XZ 000000018002dc48     TriangleMeshBuilder.obj
 0002:00002c48       $unwind$??1RTreeTriangleMeshBuilder@physx@@UEAA@XZ 000000018002dc48     TriangleMeshBuilder.obj
 0002:00002c48       $unwind$??_GRTreeCookerRemap@physx@@UEAAPEAXI@Z 000000018002dc48     TriangleMeshBuilder.obj
 0002:00002c48       $unwind$??_GRemapCallback@RTreeCooker@physx@@UEAAPEAXI@Z 000000018002dc48     TriangleMeshBuilder.obj
 0002:00002c48       $unwind$?DloadAcquireSectionWriteAccess@@YAXXZ 000000018002dc48     Delayimp:delayhlp.obj
 0002:00002c48       $unwind$??_Gtype_info@@UEAAPEAXI@Z 000000018002dc48     MSVCRT:std_type_info_static.obj
 0002:00002c48       $unwind$__scrt_initialize_onexit_tables 000000018002dc48     MSVCRT:utility.obj
 0002:00002c48       $unwind$__scrt_release_startup_lock 000000018002dc48     MSVCRT:utility.obj
 0002:00002c48       $unwind$__scrt_uninitialize_crt 000000018002dc48     MSVCRT:utility.obj
 0002:00002c50       $chain$0$??_EPxFoundation@physx@@MEAAPEAXI@Z 000000018002dc50     Adjacencies.obj
 0002:00002c64       $chain$1$??_EPxFoundation@physx@@MEAAPEAXI@Z 000000018002dc64     Adjacencies.obj
 0002:00002c74       $chain$0$??1Adjacencies@physx@@QEAA@XZ 000000018002dc74     Adjacencies.obj
 0002:00002c88       $chain$2$??1Adjacencies@physx@@QEAA@XZ 000000018002dc88     Adjacencies.obj
 0002:00002c9c       $chain$3$??1Adjacencies@physx@@QEAA@XZ 000000018002dc9c     Adjacencies.obj
 0002:00002cac       $unwind$?Init@AdjacenciesBuilder@physx@@QEAA_NAEBUADJACENCIESCREATE@2@@Z 000000018002dcac     Adjacencies.obj
 0002:00002cc0       $chain$2$?Init@AdjacenciesBuilder@physx@@QEAA_NAEBUADJACENCIESCREATE@2@@Z 000000018002dcc0     Adjacencies.obj
 0002:00002cd4       $chain$4$?Init@AdjacenciesBuilder@physx@@QEAA_NAEBUADJACENCIESCREATE@2@@Z 000000018002dcd4     Adjacencies.obj
 0002:00002cec       $chain$5$?Init@AdjacenciesBuilder@physx@@QEAA_NAEBUADJACENCIESCREATE@2@@Z 000000018002dcec     Adjacencies.obj
 0002:00002d00       $chain$6$?Init@AdjacenciesBuilder@physx@@QEAA_NAEBUADJACENCIESCREATE@2@@Z 000000018002dd00     Adjacencies.obj
 0002:00002d10       $chain$7$?Init@AdjacenciesBuilder@physx@@QEAA_NAEBUADJACENCIESCREATE@2@@Z 000000018002dd10     Adjacencies.obj
 0002:00002d24       $chain$8$?Init@AdjacenciesBuilder@physx@@QEAA_NAEBUADJACENCIESCREATE@2@@Z 000000018002dd24     Adjacencies.obj
 0002:00002d38       $unwind$??$?_UI@@YAPEAX_KV?$ReflectionAllocator@I@shdfnd@physx@@PEBDH@Z 000000018002dd38     Adjacencies.obj
 0002:00002d38       $unwind$??$?_UV?$ReflectionAllocator@VAdjTriangle@physx@@@shdfnd@physx@@@UserAllocated@shdfnd@physx@@SAPEAX_KV?$ReflectionAllocator@VAdjTriangle@physx@@@12@PEBDH@Z 000000018002dd38     Adjacencies.obj
 0002:00002d38       $unwind$?allocate@?$ReflectionAllocator@I@shdfnd@physx@@QEAAPEAX_KPEBDH@Z 000000018002dd38     Adjacencies.obj
 0002:00002d38       $unwind$??$?_UUHullTriangleData@physx@@@@YAPEAX_KV?$ReflectionAllocator@UHullTriangleData@physx@@@shdfnd@physx@@PEBDH@Z 000000018002dd38     ConvexPolygonsBuilder.obj
 0002:00002d38       $unwind$??$?_UE@@YAPEAX_KV?$ReflectionAllocator@E@shdfnd@physx@@PEBDH@Z 000000018002dd38     TriangleMeshBuilder.obj
 0002:00002d38       $unwind$??$?_UG@@YAPEAX_KV?$ReflectionAllocator@G@shdfnd@physx@@PEBDH@Z 000000018002dd38     TriangleMeshBuilder.obj
 0002:00002d48       $chain$0$??$?_UV?$ReflectionAllocator@VAdjTriangle@physx@@@shdfnd@physx@@@UserAllocated@shdfnd@physx@@SAPEAX_KV?$ReflectionAllocator@VAdjTriangle@physx@@@12@PEBDH@Z 000000018002dd48     Adjacencies.obj
 0002:00002d5c       $chain$1$??$?_UV?$ReflectionAllocator@VAdjTriangle@physx@@@shdfnd@physx@@@UserAllocated@shdfnd@physx@@SAPEAX_KV?$ReflectionAllocator@VAdjTriangle@physx@@@12@PEBDH@Z 000000018002dd5c     Adjacencies.obj
 0002:00002d6c       $unwind$?UpdateLink@@YA_NIIIIPEAVAdjTriangle@physx@@AEBUADJACENCIESCREATE@2@@Z 000000018002dd6c     Adjacencies.obj
 0002:00002d78       $chain$0$?UpdateLink@@YA_NIIIIPEAVAdjTriangle@physx@@AEBUADJACENCIESCREATE@2@@Z 000000018002dd78     Adjacencies.obj
 0002:00002d8c       $chain$4$?UpdateLink@@YA_NIIIIPEAVAdjTriangle@physx@@AEBUADJACENCIESCREATE@2@@Z 000000018002dd8c     Adjacencies.obj
 0002:00002dac       $chain$5$?UpdateLink@@YA_NIIIIPEAVAdjTriangle@physx@@AEBUADJACENCIESCREATE@2@@Z 000000018002ddac     Adjacencies.obj
 0002:00002dc0       $chain$6$?UpdateLink@@YA_NIIIIPEAVAdjTriangle@physx@@AEBUADJACENCIESCREATE@2@@Z 000000018002ddc0     Adjacencies.obj
 0002:00002dd0       $chain$7$?UpdateLink@@YA_NIIIIPEAVAdjTriangle@physx@@AEBUADJACENCIESCREATE@2@@Z 000000018002ddd0     Adjacencies.obj
 0002:00002de4       $chain$8$?UpdateLink@@YA_NIIIIPEAVAdjTriangle@physx@@AEBUADJACENCIESCREATE@2@@Z 000000018002dde4     Adjacencies.obj
 0002:00002df4       $unwind$?CreateDatabase@@YA_NPEAVAdjTriangle@physx@@IPEBVAdjEdge@@AEBUADJACENCIESCREATE@2@@Z 000000018002ddf4     Adjacencies.obj
 0002:00002e10       $chain$0$?allocate@?$ReflectionAllocator@I@shdfnd@physx@@QEAAPEAX_KPEBDH@Z 000000018002de10     Adjacencies.obj
 0002:00002e24       $chain$1$?allocate@?$ReflectionAllocator@I@shdfnd@physx@@QEAAPEAX_KPEBDH@Z 000000018002de24     Adjacencies.obj
 0002:00002e34       $chain$0$??$?_UI@@YAPEAX_KV?$ReflectionAllocator@I@shdfnd@physx@@PEBDH@Z 000000018002de34     Adjacencies.obj
 0002:00002e48       $chain$1$??$?_UI@@YAPEAX_KV?$ReflectionAllocator@I@shdfnd@physx@@PEBDH@Z 000000018002de48     Adjacencies.obj
 0002:00002e58       $unwind$?isKindOf@PxBase@physx@@MEBA_NPEBD@Z 000000018002de58     Cooking.obj
 0002:00002e58       $unwind$?release@Cooking@physx@@UEAAXXZ 000000018002de58     Cooking.obj
 0002:00002e58       $unwind$?cookingDelayHook@@YAP6A_JXZIPEAUDelayLoadInfo@@@Z 000000018002de58     WindowsCookingDelayLoadHook.obj
 0002:00002e58       $unwind$?DloadReleaseSectionWriteAccess@@YAXXZ 000000018002de58     Delayimp:delayhlp.obj
 0002:00002e58       $unwind$__scrt_initialize_default_local_stdio_options 000000018002de58     MSVCRT:default_local_stdio_options.obj
 0002:00002e58       $unwind$?dllmain_crt_dispatch@@YAHQEAUHINSTANCE__@@KQEAX@Z 000000018002de58     MSVCRT:dll_dllmain.obj
 0002:00002e58       $unwind$DllMain            000000018002de58     MSVCRT:dll_dllmain_stub.obj
 0002:00002e58       $unwind$__scrt_acquire_startup_lock 000000018002de58     MSVCRT:utility.obj
 0002:00002e58       $unwind$__scrt_dllmain_after_initialize_c 000000018002de58     MSVCRT:utility.obj
 0002:00002e58       $unwind$__scrt_dllmain_before_initialize_c 000000018002de58     MSVCRT:utility.obj
 0002:00002e58       $unwind$__scrt_dllmain_crt_thread_attach 000000018002de58     MSVCRT:utility.obj
 0002:00002e58       $unwind$__scrt_dllmain_crt_thread_detach 000000018002de58     MSVCRT:utility.obj
 0002:00002e58       $unwind$__scrt_dllmain_uninitialize_c 000000018002de58     MSVCRT:utility.obj
 0002:00002e58       $unwind$__scrt_dllmain_uninitialize_critical 000000018002de58     MSVCRT:utility.obj
 0002:00002e58       $unwind$__scrt_initialize_crt 000000018002de58     MSVCRT:utility.obj
 0002:00002e60       $unwind$?getTransform@Box@Gu@physx@@QEBA?AVPxTransform@3@XZ 000000018002de60     ConvexHullUtils.obj
 0002:00002e60       $unwind$PxCreateCooking    000000018002de60     Cooking.obj
 0002:00002e6c       $unwind$?cookConvexMesh@Cooking@physx@@UEBA_NAEBVPxConvexMeshDesc@2@AEAVPxOutputStream@2@PEAW4Enum@PxConvexMeshCookingResult@2@@Z 000000018002de6c     Cooking.obj
 0002:00002e6c       $unwind$?cookTriangleMesh@Cooking@physx@@UEBA_NAEBVPxTriangleMeshDesc@2@AEAVPxOutputStream@2@PEAW4Enum@PxTriangleMeshCookingResult@2@@Z 000000018002de6c     Cooking.obj
 0002:00002e6c       $unwind$?createTriangleMesh@Cooking@physx@@UEBAPEAVPxTriangleMesh@2@AEBVPxTriangleMeshDesc@2@AEAVPxPhysicsInsertionCallback@2@PEAW4Enum@PxTriangleMeshCookingResult@2@@Z 000000018002de6c     Cooking.obj
 0002:00002e88       $unwind$?validateTriangleMesh@Cooking@physx@@UEBA_NAEBVPxTriangleMeshDesc@2@@Z 000000018002de88     Cooking.obj
 0002:00002e98       $unwind$?createConvexMesh@Cooking@physx@@UEBAPEAVPxConvexMesh@2@AEBVPxConvexMeshDesc@2@AEAVPxPhysicsInsertionCallback@2@PEAW4Enum@PxConvexMeshCookingResult@2@@Z 000000018002de98     Cooking.obj
 0002:00002eb4       $unwind$?validateConvexMesh@Cooking@physx@@UEBA_NAEBVPxConvexMeshDesc@2@@Z 000000018002deb4     Cooking.obj
 0002:00002ec4       $unwind$?computeHullPolygons@Cooking@physx@@UEBA_NAEBVPxSimpleTriangleMesh@2@AEAVPxAllocatorCallback@2@AEAIAEAPEAVPxVec3@2@2AEAPEAI2AEAPEAUPxHullPolygon@2@@Z 000000018002dec4     Cooking.obj
 0002:00002ee4       $unwind$?cookHeightField@Cooking@physx@@UEBA_NAEBVPxHeightFieldDesc@2@AEAVPxOutputStream@2@@Z 000000018002dee4     Cooking.obj
 0002:00002ef8       $unwind$?createHeightField@Cooking@physx@@UEBAPEAVPxHeightField@2@AEBVPxHeightFieldDesc@2@AEAVPxPhysicsInsertionCallback@2@@Z 000000018002def8     Cooking.obj
 0002:00002f08       $unwind$?cookBVHStructure@Cooking@physx@@UEBA_NAEBVPxBVHStructureDesc@2@AEAVPxOutputStream@2@@Z 000000018002df08     Cooking.obj
 0002:00002f18       $unwind$?createBVHStructure@Cooking@physx@@UEBAPEAVPxBVHStructure@2@AEBVPxBVHStructureDesc@2@AEAVPxPhysicsInsertionCallback@2@@Z 000000018002df18     Cooking.obj
 0002:00002f18       $unwind$?DloadMakePermanentImageCommit@@YAXPEAX_K@Z 000000018002df18     Delayimp:delayhlp.obj
 0002:00002f24       $unwind$?cookConvexMeshInternal@Cooking@physx@@AEBA_NAEBVPxConvexMeshDesc@2@AEAVConvexMeshBuilder@2@PEAVConvexHullLib@2@PEAW4Enum@PxConvexMeshCookingResult@2@@Z 000000018002df24     Cooking.obj
 0002:00002f38       $chain$2$?cookConvexMeshInternal@Cooking@physx@@AEBA_NAEBVPxConvexMeshDesc@2@AEAVConvexMeshBuilder@2@PEAVConvexHullLib@2@PEAW4Enum@PxConvexMeshCookingResult@2@@Z 000000018002df38     Cooking.obj
 0002:00002f50       $chain$3$?cookConvexMeshInternal@Cooking@physx@@AEBA_NAEBVPxConvexMeshDesc@2@AEAVConvexMeshBuilder@2@PEAVConvexHullLib@2@PEAW4Enum@PxConvexMeshCookingResult@2@@Z 000000018002df50     Cooking.obj
 0002:00002f50       $chain$5$?cookConvexMeshInternal@Cooking@physx@@AEBA_NAEBVPxConvexMeshDesc@2@AEAVConvexMeshBuilder@2@PEAVConvexHullLib@2@PEAW4Enum@PxConvexMeshCookingResult@2@@Z 000000018002df50     Cooking.obj
 0002:00002f60       $chain$4$?cookConvexMeshInternal@Cooking@physx@@AEBA_NAEBVPxConvexMeshDesc@2@AEAVConvexMeshBuilder@2@PEAVConvexHullLib@2@PEAW4Enum@PxConvexMeshCookingResult@2@@Z 000000018002df60     Cooking.obj
 0002:00002f78       $unwind$?allocate@?$Array@USlab@NodeAllocator@Gu@physx@@V?$ReflectionAllocator@USlab@NodeAllocator@Gu@physx@@@shdfnd@4@@shdfnd@physx@@IEAAPEAUSlab@NodeAllocator@Gu@3@I@Z 000000018002df78     BVHStructureBuilder.obj
 0002:00002f78       $unwind$?allocate@?$Array@VHalfEdge@ConvexHull@physx@@V?$ReflectionAllocator@VHalfEdge@ConvexHull@physx@@@shdfnd@3@@shdfnd@physx@@IEAAPEAVHalfEdge@ConvexHull@3@I@Z 000000018002df78     ConvexHullUtils.obj
 0002:00002f78       $unwind$?allocate@?$Array@VPxPlane@physx@@V?$ReflectionAllocator@VPxPlane@physx@@@shdfnd@2@@shdfnd@physx@@IEAAPEAVPxPlane@3@I@Z 000000018002df78     ConvexHullUtils.obj
 0002:00002f78       $unwind$?computeBoxPoints@Box@Gu@physx@@QEBAXPEIAVPxVec3@3@@Z 000000018002df78     ConvexHullUtils.obj
 0002:00002f78       $unwind$?allocate@?$Array@VPair@@V?$ReflectionAllocator@VPair@@@shdfnd@physx@@@shdfnd@physx@@IEAAPEAVPair@@I@Z 000000018002df78     ConvexPolygonsBuilder.obj
 0002:00002f78       $unwind$?allocate@?$Array@UPxDebugLine@physx@@V?$ReflectionAllocator@UPxDebugLine@physx@@@shdfnd@2@@shdfnd@physx@@IEAAPEAUPxDebugLine@3@I@Z 000000018002df78     Cooking.obj
 0002:00002f78       $unwind$?allocate@?$Array@VPxVec3@physx@@V?$ReflectionAllocator@VPxVec3@physx@@@shdfnd@2@@shdfnd@physx@@IEAAPEAVPxVec3@3@I@Z 000000018002df78     Quantizer.obj
 0002:00002f78       $unwind$?allocate@?$Array@PEAUQuickHullFace@local@@V?$ReflectionAllocator@PEAUQuickHullFace@local@@@shdfnd@physx@@@shdfnd@physx@@IEAAPEAPEAUQuickHullFace@local@@I@Z 000000018002df78     QuickHullConvexHullLib.obj
 0002:00002f78       $unwind$?allocate@?$Array@PEAUQuickHullHalfEdge@local@@V?$ReflectionAllocator@PEAUQuickHullHalfEdge@local@@@shdfnd@physx@@@shdfnd@physx@@IEAAPEAPEAUQuickHullHalfEdge@local@@I@Z 000000018002df78     QuickHullConvexHullLib.obj
 0002:00002f78       $unwind$?allocate@?$Array@PEAUQuickHullVertex@local@@V?$ReflectionAllocator@PEAUQuickHullVertex@local@@@shdfnd@physx@@@shdfnd@physx@@IEAAPEAPEAUQuickHullVertex@local@@I@Z 000000018002df78     QuickHullConvexHullLib.obj
 0002:00002f78       $unwind$?allocate@?$Array@UExpandPoint@local@@V?$ReflectionAllocator@UExpandPoint@local@@@shdfnd@physx@@@shdfnd@physx@@IEAAPEAUExpandPoint@local@@I@Z 000000018002df78     QuickHullConvexHullLib.obj
 0002:00002f78       $unwind$?allocate@?$Array@UInterval@physx@@V?$InlineAllocator@$0CAAA@V?$ReflectionAllocator@UInterval@physx@@@shdfnd@physx@@@shdfnd@2@@shdfnd@physx@@IEAAPEAUInterval@3@I@Z 000000018002df78     RTreeCooking.obj
 0002:00002f78       $unwind$?allocate@?$Array@UPxBounds3V@physx@@V?$ReflectionAllocator@UPxBounds3V@physx@@@shdfnd@2@@shdfnd@physx@@IEAAPEAUPxBounds3V@3@I@Z 000000018002df78     RTreeCooking.obj
 0002:00002f78       $unwind$?allocate@?$Array@URTreeNodeNQ@physx@@V?$ReflectionAllocator@URTreeNodeNQ@physx@@@shdfnd@2@@shdfnd@physx@@IEAAPEAURTreeNodeNQ@3@I@Z 000000018002df78     RTreeCooking.obj
 0002:00002f78       $unwind$?allocate@?$Array@URTreeNodeQ@Gu@physx@@V?$ReflectionAllocator@URTreeNodeQ@Gu@physx@@@shdfnd@3@@shdfnd@physx@@IEAAPEAURTreeNodeQ@Gu@3@I@Z 000000018002df78     RTreeCooking.obj
 0002:00002f80       $chain$1$?allocate@?$Array@UPxDebugLine@physx@@V?$ReflectionAllocator@UPxDebugLine@physx@@@shdfnd@2@@shdfnd@physx@@IEAAPEAUPxDebugLine@3@I@Z 000000018002df80     Cooking.obj
 0002:00002f98       $chain$3$?allocate@?$Array@UPxDebugLine@physx@@V?$ReflectionAllocator@UPxDebugLine@physx@@@shdfnd@2@@shdfnd@physx@@IEAAPEAUPxDebugLine@3@I@Z 000000018002df98     Cooking.obj
 0002:00002fac       $chain$4$?allocate@?$Array@UPxDebugLine@physx@@V?$ReflectionAllocator@UPxDebugLine@physx@@@shdfnd@2@@shdfnd@physx@@IEAAPEAUPxDebugLine@3@I@Z 000000018002dfac     Cooking.obj
 0002:00002fbc       $unwind$?recreate@?$Array@VPxPlane@physx@@V?$ReflectionAllocator@VPxPlane@physx@@@shdfnd@2@@shdfnd@physx@@IEAAXI@Z 000000018002dfbc     ConvexHullUtils.obj
 0002:00002fbc       $unwind$?resize@?$Array@VHalfEdge@ConvexHull@physx@@V?$ReflectionAllocator@VHalfEdge@ConvexHull@physx@@@shdfnd@3@@shdfnd@physx@@QEAAXIAEBVHalfEdge@ConvexHull@3@@Z 000000018002dfbc     ConvexHullUtils.obj
 0002:00002fbc       $unwind$?recreate@?$Array@UPxDebugLine@physx@@V?$ReflectionAllocator@UPxDebugLine@physx@@@shdfnd@2@@shdfnd@physx@@IEAAXI@Z 000000018002dfbc     Cooking.obj
 0002:00002fbc       $unwind$??_GQuickHullConvexHullLib@physx@@UEAAPEAXI@Z 000000018002dfbc     QuickHullConvexHullLib.obj
 0002:00002fbc       $unwind$?recreate@?$Array@UExpandPoint@local@@V?$ReflectionAllocator@UExpandPoint@local@@@shdfnd@physx@@@shdfnd@physx@@IEAAXI@Z 000000018002dfbc     QuickHullConvexHullLib.obj
 0002:00002fbc       $unwind$?growAndPushBack@?$Array@UInterval@physx@@V?$InlineAllocator@$0CAAA@V?$ReflectionAllocator@UInterval@physx@@@shdfnd@physx@@@shdfnd@2@@shdfnd@physx@@IEAAAEAUInterval@3@AEBU43@@Z 000000018002dfbc     RTreeCooking.obj
 0002:00002fbc       $unwind$?growAndPushBack@?$Array@UPxBounds3V@physx@@V?$ReflectionAllocator@UPxBounds3V@physx@@@shdfnd@2@@shdfnd@physx@@IEAAAEAUPxBounds3V@3@AEBU43@@Z 000000018002dfbc     RTreeCooking.obj
 0002:00002fbc       $unwind$?growAndPushBack@?$Array@URTreeNodeQ@Gu@physx@@V?$ReflectionAllocator@URTreeNodeQ@Gu@physx@@@shdfnd@3@@shdfnd@physx@@IEAAAEAURTreeNodeQ@Gu@3@AEBU453@@Z 000000018002dfbc     RTreeCooking.obj
 0002:00002fbc       $unwind$?recreate@?$Array@URTreeNodeNQ@physx@@V?$ReflectionAllocator@URTreeNodeNQ@physx@@@shdfnd@2@@shdfnd@physx@@IEAAXI@Z 000000018002dfbc     RTreeCooking.obj
 0002:00002fbc       $unwind$?recreate@?$Array@VPxVec3@physx@@V?$ReflectionAllocator@VPxVec3@physx@@@shdfnd@2@@shdfnd@physx@@IEAAXI@Z 000000018002dfbc     RTreeCooking.obj
 0002:00002fbc       $unwind$?resize@?$Array@IV?$ReflectionAllocator@I@shdfnd@physx@@@shdfnd@physx@@QEAAXIAEBI@Z 000000018002dfbc     RTreeCooking.obj
 0002:00002fbc       $unwind$__scrt_dllmain_exception_filter 000000018002dfbc     MSVCRT:utility.obj
 0002:00002fd0       $unwind$??$copy@V?$ReflectionAllocator@USlab@NodeAllocator@Gu@physx@@@shdfnd@physx@@@?$Array@USlab@NodeAllocator@Gu@physx@@V?$ReflectionAllocator@USlab@NodeAllocator@Gu@physx@@@shdfnd@4@@shdfnd@physx@@IEAAXAEBV012@@Z 000000018002dfd0     BVHStructureBuilder.obj
 0002:00002fd0       $unwind$??0NodeAllocator@Gu@physx@@QEAA@AEBV012@@Z 000000018002dfd0     BVHStructureBuilder.obj
 0002:00002fd0       $unwind$??1ConvexHullLib@physx@@UEAA@XZ 000000018002dfd0     ConvexHullLib.obj
 0002:00002fd0       $unwind$??1ConvexMeshBuilder@physx@@QEAA@XZ 000000018002dfd0     ConvexMeshBuilder.obj
 0002:00002fd0       $unwind$??$copy@V?$ReflectionAllocator@VPair@@@shdfnd@physx@@@?$Array@VPair@@V?$ReflectionAllocator@VPair@@@shdfnd@physx@@@shdfnd@physx@@IEAAXAEBV012@@Z 000000018002dfd0     ConvexPolygonsBuilder.obj
 0002:00002fd0       $unwind$??1ConvexPolygonsBuilder@physx@@QEAA@XZ 000000018002dfd0     ConvexPolygonsBuilder.obj
 0002:00002fd0       $unwind$?reserveSegments@RenderOutput@Cm@physx@@QEAAPEAUPxDebugLine@3@I@Z 000000018002dfd0     Cooking.obj
 0002:00002fd0       $unwind$?Clean@ReducedVertexCloud@physx@@QEAAAEAV12@XZ 000000018002dfd0     CookingUtils.obj
 0002:00002fd0       $unwind$?computeLocalBounds@MeshBulider@physx@@IEAAXAEAVMeshDataBase@Gu@2@@Z 000000018002dfd0     MeshBuilder.obj
 0002:00002fd0       $unwind$??1QuickHull@local@@QEAA@XZ 000000018002dfd0     QuickHullConvexHullLib.obj
 0002:00002fd0       $unwind$?fillConvexMeshDesc@QuickHullConvexHullLib@physx@@UEAAXAEAVPxConvexMeshDesc@2@@Z 000000018002dfd0     QuickHullConvexHullLib.obj
 0002:00002fd0       $unwind$?resizeUninitialized@?$Array@URTreeNodeNQ@physx@@V?$ReflectionAllocator@URTreeNodeNQ@physx@@@shdfnd@2@@shdfnd@physx@@QEAAXI@Z 000000018002dfd0     RTreeCooking.obj
 0002:00002fd0       $unwind$??0BV4TriangleMeshBuilder@physx@@QEAA@AEBUPxCookingParams@1@@Z 000000018002dfd0     TriangleMeshBuilder.obj
 0002:00002fd0       $unwind$??1BV4TriangleMeshBuilder@physx@@UEAA@XZ 000000018002dfd0     TriangleMeshBuilder.obj
 0002:00002fd0       $unwind$??1TriangleMeshBuilder@physx@@UEAA@XZ 000000018002dfd0     TriangleMeshBuilder.obj
 0002:00002fd0       $unwind$??1TriangleMeshData@Gu@physx@@UEAA@XZ 000000018002dfd0     TriangleMeshBuilder.obj
 0002:00002fd0       $unwind$??_GBV4TriangleData@Gu@physx@@UEAAPEAXI@Z 000000018002dfd0     TriangleMeshBuilder.obj
 0002:00002fd0       $unwind$??_GMeshDataBase@Gu@physx@@UEAAPEAXI@Z 000000018002dfd0     TriangleMeshBuilder.obj
 0002:00002fd0       $unwind$??_GRTreeTriangleData@Gu@physx@@UEAAPEAXI@Z 000000018002dfd0     TriangleMeshBuilder.obj
 0002:00002fd0       $unwind$??_GRTreeTriangleMeshBuilder@physx@@UEAAPEAXI@Z 000000018002dfd0     TriangleMeshBuilder.obj
 0002:00002fd0       $unwind$??_GTriangleMeshBuilder@physx@@UEAAPEAXI@Z 000000018002dfd0     TriangleMeshBuilder.obj
 0002:00002fd0       $unwind$??_GTriangleMeshData@Gu@physx@@UEAAPEAXI@Z 000000018002dfd0     TriangleMeshBuilder.obj
 0002:00002fd0       $unwind$?DloadGetSRWLockFunctionPointers@@YAEXZ 000000018002dfd0     Delayimp:delayhlp.obj
 0002:00002fd0       $unwind$_RTC_Initialize    000000018002dfd0     MSVCRT:initsect.obj
 0002:00002fd0       $unwind$_RTC_Terminate     000000018002dfd0     MSVCRT:initsect.obj
 0002:00002fdc       $unwind$?outputSegment@RenderOutput@Cm@physx@@QEAAXAEBVPxVec3@3@0@Z 000000018002dfdc     Cooking.obj
 0002:00002ff4       $unwind$?getHeight@HeightField@Gu@physx@@UEBAMMM@Z 000000018002dff4     Cooking.obj
 0002:00002ffc       $unwind$?getTriangleNormal@HeightField@Gu@physx@@UEBA?AVPxVec3@3@I@Z 000000018002dffc     Cooking.obj
 0002:00003008       $unwind$?getHeightInternal2@HeightField@Gu@physx@@QEBAMIMM@Z 000000018002e008     Cooking.obj
 0002:00003014       $chain$0$?getHeightInternal2@HeightField@Gu@physx@@QEBAMIMM@Z 000000018002e014     Cooking.obj
 0002:00003028       $chain$2$?getHeightInternal2@HeightField@Gu@physx@@QEBAMIMM@Z 000000018002e028     Cooking.obj
 0002:0000303c       $unwind$?Reduce@ReducedVertexCloud@physx@@QEAA_NPEAUREDUCEDCLOUD@2@@Z 000000018002e03c     CookingUtils.obj
 0002:00003058       $unwind$??1AABBTreeBuildParams@Gu@physx@@QEAA@XZ 000000018002e058     BVHStructureBuilder.obj
 0002:00003058       $unwind$??1BVHStructureBuilder@physx@@QEAA@XZ 000000018002e058     BVHStructureBuilder.obj
 0002:00003058       $unwind$?reset@AABBTreeBuildParams@Gu@physx@@QEAAXXZ 000000018002e058     BVHStructureBuilder.obj
 0002:00003058       $unwind$??1ConvexHullBuilder@physx@@QEAA@XZ 000000018002e058     ConvexHullBuilder.obj
 0002:00003058       $unwind$??_GConvexHullLib@physx@@UEAAPEAXI@Z 000000018002e058     ConvexHullLib.obj
 0002:00003058       $unwind$?resize@?$Array@VPxPlane@physx@@V?$ReflectionAllocator@VPxPlane@physx@@@shdfnd@2@@shdfnd@physx@@QEAAXIAEBVPxPlane@3@@Z 000000018002e058     ConvexHullUtils.obj
 0002:00003058       $unwind$?resize@?$Array@VPxVec3@physx@@V?$ReflectionAllocator@VPxVec3@physx@@@shdfnd@2@@shdfnd@physx@@QEAAXIAEBVPxVec3@3@@Z 000000018002e058     ConvexHullUtils.obj
 0002:00003058       $unwind$??1EdgeList@Gu@physx@@QEAA@XZ 000000018002e058     EdgeList.obj
 0002:00003058       $unwind$??1MeshCleaner@physx@@QEAA@XZ 000000018002e058     MeshCleaner.obj
 0002:00003058       $unwind$??1MeshDataBase@Gu@physx@@UEAA@XZ 000000018002e058     TriangleMeshBuilder.obj
 0002:00003058       $unwind$??_GBV4TriangleMeshBuilder@physx@@UEAAPEAXI@Z 000000018002e058     TriangleMeshBuilder.obj
 0002:00003058       $unwind$_DllMainCRTStartup 000000018002e058     MSVCRT:dll_dllmain.obj
 0002:00003068       $unwind$?init@EdgeListBuilder@Gu@physx@@QEAA_NAEBUEDGELISTCREATE@23@@Z 000000018002e068     EdgeList.obj
 0002:0000307c       $unwind$?createFacesToEdges@EdgeListBuilder@Gu@physx@@AEAA_NIPEBIPEBG@Z 000000018002e07c     EdgeList.obj
 0002:0000308c       $chain$0$?createFacesToEdges@EdgeListBuilder@Gu@physx@@AEAA_NIPEBIPEBG@Z 000000018002e08c     EdgeList.obj
 0002:000030a0       $chain$3$?createFacesToEdges@EdgeListBuilder@Gu@physx@@AEAA_NIPEBIPEBG@Z 000000018002e0a0     EdgeList.obj
 0002:000030bc       $chain$4$?createFacesToEdges@EdgeListBuilder@Gu@physx@@AEAA_NIPEBIPEBG@Z 000000018002e0bc     EdgeList.obj
 0002:000030d4       $chain$5$?createFacesToEdges@EdgeListBuilder@Gu@physx@@AEAA_NIPEBIPEBG@Z 000000018002e0d4     EdgeList.obj
 0002:000030ec       $chain$6$?createFacesToEdges@EdgeListBuilder@Gu@physx@@AEAA_NIPEBIPEBG@Z 000000018002e0ec     EdgeList.obj
 0002:00003100       $chain$7$?createFacesToEdges@EdgeListBuilder@Gu@physx@@AEAA_NIPEBIPEBG@Z 000000018002e100     EdgeList.obj
 0002:00003110       $unwind$?createEdgesToFaces@EdgeListBuilder@Gu@physx@@AEAA_NIPEBIPEBG@Z 000000018002e110     EdgeList.obj
 0002:0000311c       $chain$2$?createEdgesToFaces@EdgeListBuilder@Gu@physx@@AEAA_NIPEBIPEBG@Z 000000018002e11c     EdgeList.obj
 0002:00003138       $chain$3$?createEdgesToFaces@EdgeListBuilder@Gu@physx@@AEAA_NIPEBIPEBG@Z 000000018002e138     EdgeList.obj
 0002:00003150       $unwind$?computeActiveEdges@EdgeListBuilder@Gu@physx@@AEAA_NIPEBIPEBGPEBVPxVec3@3@M@Z 000000018002e150     EdgeList.obj
 0002:00003160       $chain$0$?computeActiveEdges@EdgeListBuilder@Gu@physx@@AEAA_NIPEBIPEBGPEBVPxVec3@3@M@Z 000000018002e160     EdgeList.obj
 0002:00003174       $chain$1$?computeActiveEdges@EdgeListBuilder@Gu@physx@@AEAA_NIPEBIPEBGPEBVPxVec3@3@M@Z 000000018002e174     EdgeList.obj
 0002:00003188       $chain$2$?computeActiveEdges@EdgeListBuilder@Gu@physx@@AEAA_NIPEBIPEBGPEBVPxVec3@3@M@Z 000000018002e188     EdgeList.obj
 0002:0000319c       $chain$3$?computeActiveEdges@EdgeListBuilder@Gu@physx@@AEAA_NIPEBIPEBGPEBVPxVec3@3@M@Z 000000018002e19c     EdgeList.obj
 0002:000031ac       $chain$4$?computeActiveEdges@EdgeListBuilder@Gu@physx@@AEAA_NIPEBIPEBGPEBVPxVec3@3@M@Z 000000018002e1ac     EdgeList.obj
 0002:000031bc       $chain$18$?computeActiveEdges@EdgeListBuilder@Gu@physx@@AEAA_NIPEBIPEBGPEBVPxVec3@3@M@Z 000000018002e1bc     EdgeList.obj
 0002:000031fc       $chain$19$?computeActiveEdges@EdgeListBuilder@Gu@physx@@AEAA_NIPEBIPEBGPEBVPxVec3@3@M@Z 000000018002e1fc     EdgeList.obj
 0002:00003210       $chain$6$?computeActiveEdges@EdgeListBuilder@Gu@physx@@AEAA_NIPEBIPEBGPEBVPxVec3@3@M@Z 000000018002e210     EdgeList.obj
 0002:0000322c       $chain$20$?computeActiveEdges@EdgeListBuilder@Gu@physx@@AEAA_NIPEBIPEBGPEBVPxVec3@3@M@Z 000000018002e22c     EdgeList.obj
 0002:0000323c       $unwind$??0MeshCleaner@physx@@QEAA@IPEBVPxVec3@1@IPEBIM@Z 000000018002e23c     MeshCleaner.obj
 0002:0000324c       $chain$4$??0MeshCleaner@physx@@QEAA@IPEBVPxVec3@1@IPEBIM@Z 000000018002e24c     MeshCleaner.obj
 0002:00003270       $chain$6$??0MeshCleaner@physx@@QEAA@IPEBVPxVec3@1@IPEBIM@Z 000000018002e270     MeshCleaner.obj
 0002:00003288       $chain$7$??0MeshCleaner@physx@@QEAA@IPEBVPxVec3@1@IPEBIM@Z 000000018002e288     MeshCleaner.obj
 0002:0000329c       $chain$8$??0MeshCleaner@physx@@QEAA@IPEBVPxVec3@1@IPEBIM@Z 000000018002e29c     MeshCleaner.obj
 0002:000032ac       $chain$9$??0MeshCleaner@physx@@QEAA@IPEBVPxVec3@1@IPEBIM@Z 000000018002e2ac     MeshCleaner.obj
 0002:000032bc       $chain$10$??0MeshCleaner@physx@@QEAA@IPEBVPxVec3@1@IPEBIM@Z 000000018002e2bc     MeshCleaner.obj
 0002:000032cc       $unwind$?createQuantizer@physx@@YAPEAVQuantizer@1@XZ 000000018002e2cc     Quantizer.obj
 0002:000032d4       $unwind$??$kmeans_cluster@VPxVec3@physx@@M@@YAIPEBVPxVec3@physx@@IIPEAV01@PEAIMM@Z 000000018002e2d4     Quantizer.obj
 0002:000032e0       $chain$6$??$kmeans_cluster@VPxVec3@physx@@M@@YAIPEBVPxVec3@physx@@IIPEAV01@PEAIMM@Z 000000018002e2e0     Quantizer.obj
 0002:0000330c       $chain$12$??$kmeans_cluster@VPxVec3@physx@@M@@YAIPEBVPxVec3@physx@@IIPEAV01@PEAIMM@Z 000000018002e30c     Quantizer.obj
 0002:00003334       $chain$13$??$kmeans_cluster@VPxVec3@physx@@M@@YAIPEBVPxVec3@physx@@IIPEAV01@PEAIMM@Z 000000018002e334     Quantizer.obj
 0002:00003344       $chain$14$??$kmeans_cluster@VPxVec3@physx@@M@@YAIPEBVPxVec3@physx@@IIPEAV01@PEAIMM@Z 000000018002e344     Quantizer.obj
 0002:00003354       $unwind$?kmeansQuantize3D@QuantizerImpl@@UEAAPEBVPxVec3@physx@@IPEBV23@I_NIAEAI@Z 000000018002e354     Quantizer.obj
 0002:00003364       $chain$0$?kmeansQuantize3D@QuantizerImpl@@UEAAPEBVPxVec3@physx@@IPEBV23@I_NIAEAI@Z 000000018002e364     Quantizer.obj
 0002:00003378       $chain$2$?kmeansQuantize3D@QuantizerImpl@@UEAAPEBVPxVec3@physx@@IPEBV23@I_NIAEAI@Z 000000018002e378     Quantizer.obj
 0002:00003390       $chain$3$?kmeansQuantize3D@QuantizerImpl@@UEAAPEBVPxVec3@physx@@IPEBV23@I_NIAEAI@Z 000000018002e390     Quantizer.obj
 0002:000033a4       $chain$4$?kmeansQuantize3D@QuantizerImpl@@UEAAPEBVPxVec3@physx@@IPEBV23@I_NIAEAI@Z 000000018002e3a4     Quantizer.obj
 0002:000033b4       $chain$5$?kmeansQuantize3D@QuantizerImpl@@UEAAPEBVPxVec3@physx@@IPEBV23@I_NIAEAI@Z 000000018002e3b4     Quantizer.obj
 0002:000033c4       $unwind$?normalizeInput@QuantizerImpl@@AEAAXIPEBVPxVec3@physx@@I@Z 000000018002e3c4     Quantizer.obj
 0002:000033e8       $chain$3$?normalizeInput@QuantizerImpl@@AEAAXIPEBVPxVec3@physx@@I@Z 000000018002e3e8     Quantizer.obj
 0002:00003408       $chain$4$?normalizeInput@QuantizerImpl@@AEAAXIPEBVPxVec3@physx@@I@Z 000000018002e408     Quantizer.obj
 0002:0000341c       $chain$5$?normalizeInput@QuantizerImpl@@AEAAXIPEBVPxVec3@physx@@I@Z 000000018002e41c     Quantizer.obj
 0002:0000342c       $chain$6$?normalizeInput@QuantizerImpl@@AEAAXIPEBVPxVec3@physx@@I@Z 000000018002e42c     Quantizer.obj
 0002:0000343c       $chain$7$?normalizeInput@QuantizerImpl@@AEAAXIPEBVPxVec3@physx@@I@Z 000000018002e43c     Quantizer.obj
 0002:00003450       $chain$8$?normalizeInput@QuantizerImpl@@AEAAXIPEBVPxVec3@physx@@I@Z 000000018002e450     Quantizer.obj
 0002:00003460       $chain$1$?allocate@?$Array@VPxVec3@physx@@V?$ReflectionAllocator@VPxVec3@physx@@@shdfnd@2@@shdfnd@physx@@IEAAPEAVPxVec3@3@I@Z 000000018002e460     Quantizer.obj
 0002:00003478       $chain$3$?allocate@?$Array@VPxVec3@physx@@V?$ReflectionAllocator@VPxVec3@physx@@@shdfnd@2@@shdfnd@physx@@IEAAPEAVPxVec3@3@I@Z 000000018002e478     Quantizer.obj
 0002:0000348c       $chain$4$?allocate@?$Array@VPxVec3@physx@@V?$ReflectionAllocator@VPxVec3@physx@@@shdfnd@2@@shdfnd@physx@@IEAAPEAVPxVec3@3@I@Z 000000018002e48c     Quantizer.obj
 0002:0000349c       $unwind$?growAndPushBack@?$Array@VPxVec3@physx@@V?$ReflectionAllocator@VPxVec3@physx@@@shdfnd@2@@shdfnd@physx@@IEAAAEAVPxVec3@3@AEBV43@@Z 000000018002e49c     Quantizer.obj
 0002:0000349c       $unwind$?doAdjacentMerge@QuickHull@local@@IEAA_NAEAUQuickHullFace@2@_NAEA_N@Z 000000018002e49c     QuickHullConvexHullLib.obj
 0002:0000349c       $unwind$?saveMidPhaseStructure@BV4TriangleMeshBuilder@physx@@UEBAXAEAVPxOutputStream@2@_N@Z 000000018002e49c     TriangleMeshBuilder.obj
 0002:000034a8       $chain$0$?growAndPushBack@?$Array@VPxVec3@physx@@V?$ReflectionAllocator@VPxVec3@physx@@@shdfnd@2@@shdfnd@physx@@IEAAAEAVPxVec3@3@AEBV43@@Z 000000018002e4a8     Quantizer.obj
 0002:000034bc       $chain$1$?growAndPushBack@?$Array@VPxVec3@physx@@V?$ReflectionAllocator@VPxVec3@physx@@@shdfnd@2@@shdfnd@physx@@IEAAAEAVPxVec3@3@AEBV43@@Z 000000018002e4bc     Quantizer.obj
 0002:000034d0       $chain$2$?growAndPushBack@?$Array@VPxVec3@physx@@V?$ReflectionAllocator@VPxVec3@physx@@@shdfnd@2@@shdfnd@physx@@IEAAAEAVPxVec3@3@AEBV43@@Z 000000018002e4d0     Quantizer.obj
 0002:000034e0       $chain$4$?growAndPushBack@?$Array@VPxVec3@physx@@V?$ReflectionAllocator@VPxVec3@physx@@@shdfnd@2@@shdfnd@physx@@IEAAAEAVPxVec3@3@AEBV43@@Z 000000018002e4e0     Quantizer.obj
 0002:000034f4       $chain$3$?growAndPushBack@?$Array@VPxVec3@physx@@V?$ReflectionAllocator@VPxVec3@physx@@@shdfnd@2@@shdfnd@physx@@IEAAAEAVPxVec3@3@AEBV43@@Z 000000018002e4f4     Quantizer.obj
 0002:00003504       $unwind$??_GQuantizerImpl@@EEAAPEAXI@Z 000000018002e504     Quantizer.obj
 0002:00003504       $unwind$??_GConvexHull@physx@@QEAAPEAXI@Z 000000018002e504     QuickHullConvexHullLib.obj
 0002:00003510       $chain$0$??_GQuantizerImpl@@EEAAPEAXI@Z 000000018002e510     Quantizer.obj
 0002:00003524       $chain$1$??_GQuantizerImpl@@EEAAPEAXI@Z 000000018002e524     Quantizer.obj
 0002:00003534       $unwind$?loadFromDesc@BVHStructureBuilder@physx@@QEAA_NAEBVPxBVHStructureDesc@2@@Z 000000018002e534     BVHStructureBuilder.obj
 0002:00003548       $unwind$?save@BVHStructureBuilder@physx@@QEBA_NAEAVPxOutputStream@2@_N@Z 000000018002e548     BVHStructureBuilder.obj
 0002:00003558       $chain$2$?save@BVHStructureBuilder@physx@@QEBA_NAEAVPxOutputStream@2@_N@Z 000000018002e558     BVHStructureBuilder.obj
 0002:00003570       $chain$3$?save@BVHStructureBuilder@physx@@QEBA_NAEAVPxOutputStream@2@_N@Z 000000018002e570     BVHStructureBuilder.obj
 0002:00003584       $chain$1$?allocate@?$Array@USlab@NodeAllocator@Gu@physx@@V?$ReflectionAllocator@USlab@NodeAllocator@Gu@physx@@@shdfnd@4@@shdfnd@physx@@IEAAPEAUSlab@NodeAllocator@Gu@3@I@Z 000000018002e584     BVHStructureBuilder.obj
 0002:0000359c       $chain$3$?allocate@?$Array@USlab@NodeAllocator@Gu@physx@@V?$ReflectionAllocator@USlab@NodeAllocator@Gu@physx@@@shdfnd@4@@shdfnd@physx@@IEAAPEAUSlab@NodeAllocator@Gu@3@I@Z 000000018002e59c     BVHStructureBuilder.obj
 0002:000035b0       $chain$4$?allocate@?$Array@USlab@NodeAllocator@Gu@physx@@V?$ReflectionAllocator@USlab@NodeAllocator@Gu@physx@@@shdfnd@4@@shdfnd@physx@@IEAAPEAUSlab@NodeAllocator@Gu@3@I@Z 000000018002e5b0     BVHStructureBuilder.obj
 0002:000035c0       $unwind$?recreate@?$Array@USlab@NodeAllocator@Gu@physx@@V?$ReflectionAllocator@USlab@NodeAllocator@Gu@physx@@@shdfnd@4@@shdfnd@physx@@IEAAXI@Z 000000018002e5c0     BVHStructureBuilder.obj
 0002:000035c0       $unwind$?recreate@?$Array@VHalfEdge@ConvexHull@physx@@V?$ReflectionAllocator@VHalfEdge@ConvexHull@physx@@@shdfnd@3@@shdfnd@physx@@IEAAXI@Z 000000018002e5c0     ConvexHullUtils.obj
 0002:000035c0       $unwind$?copy@ConvexMeshBuilder@physx@@QEAA_NAEAUConvexHullInitData@Gu@2@@Z 000000018002e5c0     ConvexMeshBuilder.obj
 0002:000035c0       $unwind$?recreate@?$Array@PEAUQuickHullFace@local@@V?$ReflectionAllocator@PEAUQuickHullFace@local@@@shdfnd@physx@@@shdfnd@physx@@IEAAXI@Z 000000018002e5c0     QuickHullConvexHullLib.obj
 0002:000035c0       $unwind$?recreate@?$Array@PEAUQuickHullHalfEdge@local@@V?$ReflectionAllocator@PEAUQuickHullHalfEdge@local@@@shdfnd@physx@@@shdfnd@physx@@IEAAXI@Z 000000018002e5c0     QuickHullConvexHullLib.obj
 0002:000035c0       $unwind$?recreate@?$Array@PEAUQuickHullVertex@local@@V?$ReflectionAllocator@PEAUQuickHullVertex@local@@@shdfnd@physx@@@shdfnd@physx@@IEAAXI@Z 000000018002e5c0     QuickHullConvexHullLib.obj
 0002:000035c0       $unwind$?recreate@?$Array@IV?$ReflectionAllocator@I@shdfnd@physx@@@shdfnd@physx@@IEAAXI@Z 000000018002e5c0     RTreeCooking.obj
 0002:000035c0       $unwind$?recreate@?$Array@UPxBounds3V@physx@@V?$ReflectionAllocator@UPxBounds3V@physx@@@shdfnd@2@@shdfnd@physx@@IEAAXI@Z 000000018002e5c0     RTreeCooking.obj
 0002:000035c0       $unwind$?recreate@?$Array@URTreeNodeQ@Gu@physx@@V?$ReflectionAllocator@URTreeNodeQ@Gu@physx@@@shdfnd@3@@shdfnd@physx@@IEAAXI@Z 000000018002e5c0     RTreeCooking.obj
 0002:000035d0       $chain$0$?recreate@?$Array@USlab@NodeAllocator@Gu@physx@@V?$ReflectionAllocator@USlab@NodeAllocator@Gu@physx@@@shdfnd@4@@shdfnd@physx@@IEAAXI@Z 000000018002e5d0     BVHStructureBuilder.obj
 0002:000035e4       $chain$1$?recreate@?$Array@USlab@NodeAllocator@Gu@physx@@V?$ReflectionAllocator@USlab@NodeAllocator@Gu@physx@@@shdfnd@4@@shdfnd@physx@@IEAAXI@Z 000000018002e5e4     BVHStructureBuilder.obj
 0002:000035f4       $unwind$??4NodeAllocator@Gu@physx@@QEAAAEAV012@AEBV012@@Z 000000018002e5f4     BVHStructureBuilder.obj
 0002:00003608       $unwind$?flatten@@YAXAEBVNodeAllocator@Gu@physx@@PEAUBVHNode@23@@Z 000000018002e608     BVHStructureBuilder.obj
 0002:00003614       $chain$5$?flatten@@YAXAEBVNodeAllocator@Gu@physx@@PEAUBVHNode@23@@Z 000000018002e614     BVHStructureBuilder.obj
 0002:0000363c       $chain$6$?flatten@@YAXAEBVNodeAllocator@Gu@physx@@PEAUBVHNode@23@@Z 000000018002e63c     BVHStructureBuilder.obj
 0002:0000364c       $unwind$?saveHeightField@physx@@YA_NAEBVHeightField@Gu@1@AEAVPxOutputStream@1@_N@Z 000000018002e64c     HeightFieldCooking.obj
 0002:0000365c       $chain$2$?saveHeightField@physx@@YA_NAEBVHeightField@Gu@1@AEAVPxOutputStream@1@_N@Z 000000018002e65c     HeightFieldCooking.obj
 0002:00003674       $chain$3$?saveHeightField@physx@@YA_NAEBVHeightField@Gu@1@AEAVPxOutputStream@1@_N@Z 000000018002e674     HeightFieldCooking.obj
 0002:00003684       $unwind$?buildFromTriangles@RTreeCooker@physx@@SAXAEAURTree@Gu@2@PEBVPxVec3@2@IPEBGPEBIIAEAV?$Array@IV?$ReflectionAllocator@I@shdfnd@physx@@@shdfnd@2@PEAURemapCallback@12@MW4Enum@PxMeshCookingHint@2@@Z 000000018002e684     RTreeCooking.obj
 0002:00003690       $chain$8$?buildFromTriangles@RTreeCooker@physx@@SAXAEAURTree@Gu@2@PEBVPxVec3@2@IPEBGPEBIIAEAV?$Array@IV?$ReflectionAllocator@I@shdfnd@physx@@@shdfnd@2@PEAURemapCallback@12@MW4Enum@PxMeshCookingHint@2@@Z 000000018002e690     RTreeCooking.obj
 0002:000036c4       $chain$9$?buildFromTriangles@RTreeCooker@physx@@SAXAEAURTree@Gu@2@PEBVPxVec3@2@IPEBGPEBIIAEAV?$Array@IV?$ReflectionAllocator@I@shdfnd@physx@@@shdfnd@2@PEAURemapCallback@12@MW4Enum@PxMeshCookingHint@2@@Z 000000018002e6c4     RTreeCooking.obj
 0002:000036d8       $chain$10$?buildFromTriangles@RTreeCooker@physx@@SAXAEAURTree@Gu@2@PEBVPxVec3@2@IPEBGPEBIIAEAV?$Array@IV?$ReflectionAllocator@I@shdfnd@physx@@@shdfnd@2@PEAURemapCallback@12@MW4Enum@PxMeshCookingHint@2@@Z 000000018002e6d8     RTreeCooking.obj
 0002:000036e8       $chain$11$?buildFromTriangles@RTreeCooker@physx@@SAXAEAURTree@Gu@2@PEBVPxVec3@2@IPEBGPEBIIAEAV?$Array@IV?$ReflectionAllocator@I@shdfnd@physx@@@shdfnd@2@PEAURemapCallback@12@MW4Enum@PxMeshCookingHint@2@@Z 000000018002e6e8     RTreeCooking.obj
 0002:000036f8       $unwind$?buildFromBounds@physx@@YAXAEAURTree@Gu@1@PEBUPxBounds3V@1@IAEAV?$Array@IV?$ReflectionAllocator@I@shdfnd@physx@@@shdfnd@1@PEAURemapCallback@RTreeCooker@1@AEAT__m128@@4MW4Enum@PxMeshCookingHint@1@@Z 000000018002e6f8     RTreeCooking.obj
 0002:0000371c       $chain$1$?allocate@?$Array@UPxBounds3V@physx@@V?$ReflectionAllocator@UPxBounds3V@physx@@@shdfnd@2@@shdfnd@physx@@IEAAPEAUPxBounds3V@3@I@Z 000000018002e71c     RTreeCooking.obj
 0002:00003734       $chain$3$?allocate@?$Array@UPxBounds3V@physx@@V?$ReflectionAllocator@UPxBounds3V@physx@@@shdfnd@2@@shdfnd@physx@@IEAAPEAUPxBounds3V@3@I@Z 000000018002e734     RTreeCooking.obj
 0002:00003748       $chain$4$?allocate@?$Array@UPxBounds3V@physx@@V?$ReflectionAllocator@UPxBounds3V@physx@@@shdfnd@2@@shdfnd@physx@@IEAAPEAUPxBounds3V@3@I@Z 000000018002e748     RTreeCooking.obj
 0002:00003758       $chain$0$?recreate@?$Array@UPxBounds3V@physx@@V?$ReflectionAllocator@UPxBounds3V@physx@@@shdfnd@2@@shdfnd@physx@@IEAAXI@Z 000000018002e758     RTreeCooking.obj
 0002:0000376c       $chain$1$?recreate@?$Array@UPxBounds3V@physx@@V?$ReflectionAllocator@UPxBounds3V@physx@@@shdfnd@2@@shdfnd@physx@@IEAAXI@Z 000000018002e76c     RTreeCooking.obj
 0002:0000377c       $unwind$?growAndPushBack@?$Array@VHalfEdge@ConvexHull@physx@@V?$ReflectionAllocator@VHalfEdge@ConvexHull@physx@@@shdfnd@3@@shdfnd@physx@@IEAAAEAVHalfEdge@ConvexHull@3@AEBV453@@Z 000000018002e77c     ConvexHullUtils.obj
 0002:0000377c       $unwind$?growAndPushBack@?$Array@VPxPlane@physx@@V?$ReflectionAllocator@VPxPlane@physx@@@shdfnd@2@@shdfnd@physx@@IEAAAEAVPxPlane@3@AEBV43@@Z 000000018002e77c     ConvexHullUtils.obj
 0002:0000377c       $unwind$?growAndPushBack@?$Array@VPair@@V?$ReflectionAllocator@VPair@@@shdfnd@physx@@@shdfnd@physx@@IEAAAEAVPair@@AEBV4@@Z 000000018002e77c     ConvexPolygonsBuilder.obj
 0002:0000377c       $unwind$?growAndPushBack@?$Array@PEAUQuickHullFace@local@@V?$ReflectionAllocator@PEAUQuickHullFace@local@@@shdfnd@physx@@@shdfnd@physx@@IEAAAEAPEAUQuickHullFace@local@@AEBQEAU45@@Z 000000018002e77c     QuickHullConvexHullLib.obj
 0002:0000377c       $unwind$?growAndPushBack@?$Array@PEAUQuickHullHalfEdge@local@@V?$ReflectionAllocator@PEAUQuickHullHalfEdge@local@@@shdfnd@physx@@@shdfnd@physx@@IEAAAEAPEAUQuickHullHalfEdge@local@@AEBQEAU45@@Z 000000018002e77c     QuickHullConvexHullLib.obj
 0002:0000377c       $unwind$?growAndPushBack@?$Array@PEAUQuickHullVertex@local@@V?$ReflectionAllocator@PEAUQuickHullVertex@local@@@shdfnd@physx@@@shdfnd@physx@@IEAAAEAPEAUQuickHullVertex@local@@AEBQEAU45@@Z 000000018002e77c     QuickHullConvexHullLib.obj
 0002:0000377c       $unwind$?growAndPushBack@?$Array@UExpandPoint@local@@V?$ReflectionAllocator@UExpandPoint@local@@@shdfnd@physx@@@shdfnd@physx@@IEAAAEAUExpandPoint@local@@AEBU45@@Z 000000018002e77c     QuickHullConvexHullLib.obj
 0002:0000377c       $unwind$?growAndPushBack@?$Array@IV?$ReflectionAllocator@I@shdfnd@physx@@@shdfnd@physx@@IEAAAEAIAEBI@Z 000000018002e77c     RTreeCooking.obj
 0002:0000377c       $unwind$?growAndPushBack@?$Array@URTreeNodeNQ@physx@@V?$ReflectionAllocator@URTreeNodeNQ@physx@@@shdfnd@2@@shdfnd@physx@@IEAAAEAURTreeNodeNQ@3@AEBU43@@Z 000000018002e77c     RTreeCooking.obj
 0002:0000378c       $chain$0$?growAndPushBack@?$Array@IV?$ReflectionAllocator@I@shdfnd@physx@@@shdfnd@physx@@IEAAAEAIAEBI@Z 000000018002e78c     RTreeCooking.obj
 0002:000037a0       $chain$2$?growAndPushBack@?$Array@IV?$ReflectionAllocator@I@shdfnd@physx@@@shdfnd@physx@@IEAAAEAIAEBI@Z 000000018002e7a0     RTreeCooking.obj
 0002:000037b4       $chain$1$?growAndPushBack@?$Array@IV?$ReflectionAllocator@I@shdfnd@physx@@@shdfnd@physx@@IEAAAEAIAEBI@Z 000000018002e7b4     RTreeCooking.obj
 0002:000037c4       $chain$0$?recreate@?$Array@IV?$ReflectionAllocator@I@shdfnd@physx@@@shdfnd@physx@@IEAAXI@Z 000000018002e7c4     RTreeCooking.obj
 0002:000037d8       $chain$1$?recreate@?$Array@IV?$ReflectionAllocator@I@shdfnd@physx@@@shdfnd@physx@@IEAAXI@Z 000000018002e7d8     RTreeCooking.obj
 0002:000037e8       $unwind$?sort4@SubSortQuick@physx@@QEAAXPEIAIIAEAV?$Array@URTreeNodeNQ@physx@@V?$ReflectionAllocator@URTreeNodeNQ@physx@@@shdfnd@2@@shdfnd@2@AEAIAEAUPxBounds3V@2@I@Z 000000018002e7e8     RTreeCooking.obj
 0002:00003800       $chain$1$?allocate@?$Array@URTreeNodeNQ@physx@@V?$ReflectionAllocator@URTreeNodeNQ@physx@@@shdfnd@2@@shdfnd@physx@@IEAAPEAURTreeNodeNQ@3@I@Z 000000018002e800     RTreeCooking.obj
 0002:00003818       $chain$3$?allocate@?$Array@URTreeNodeNQ@physx@@V?$ReflectionAllocator@URTreeNodeNQ@physx@@@shdfnd@2@@shdfnd@physx@@IEAAPEAURTreeNodeNQ@3@I@Z 000000018002e818     RTreeCooking.obj
 0002:0000382c       $chain$4$?allocate@?$Array@URTreeNodeNQ@physx@@V?$ReflectionAllocator@URTreeNodeNQ@physx@@@shdfnd@2@@shdfnd@physx@@IEAAPEAURTreeNodeNQ@3@I@Z 000000018002e82c     RTreeCooking.obj
 0002:0000383c       $chain$0$?growAndPushBack@?$Array@URTreeNodeNQ@physx@@V?$ReflectionAllocator@URTreeNodeNQ@physx@@@shdfnd@2@@shdfnd@physx@@IEAAAEAURTreeNodeNQ@3@AEBU43@@Z 000000018002e83c     RTreeCooking.obj
 0002:00003850       $chain$2$?growAndPushBack@?$Array@URTreeNodeNQ@physx@@V?$ReflectionAllocator@URTreeNodeNQ@physx@@@shdfnd@2@@shdfnd@physx@@IEAAAEAURTreeNodeNQ@3@AEBU43@@Z 000000018002e850     RTreeCooking.obj
 0002:00003864       $chain$1$?growAndPushBack@?$Array@URTreeNodeNQ@physx@@V?$ReflectionAllocator@URTreeNodeNQ@physx@@@shdfnd@2@@shdfnd@physx@@IEAAAEAURTreeNodeNQ@3@AEBU43@@Z 000000018002e864     RTreeCooking.obj
 0002:00003874       $unwind$??$quickSelectFirstK@UBoundsLTE@physx@@@quickSelect@physx@@YAXPEIAIIIIAEBUBoundsLTE@1@@Z 000000018002e874     RTreeCooking.obj
 0002:00003890       $unwind$?split@SubSortSAH@physx@@QEAAIPEAII@Z 000000018002e890     RTreeCooking.obj
 0002:000038b0       $chain$5$?split@SubSortSAH@physx@@QEAAIPEAII@Z 000000018002e8b0     RTreeCooking.obj
 0002:000038c8       $chain$6$?split@SubSortSAH@physx@@QEAAIPEAII@Z 000000018002e8c8     RTreeCooking.obj
 0002:000038c8       $chain$8$?split@SubSortSAH@physx@@QEAAIPEAII@Z 000000018002e8c8     RTreeCooking.obj
 0002:000038d8       $chain$7$?split@SubSortSAH@physx@@QEAAIPEAII@Z 000000018002e8d8     RTreeCooking.obj
 0002:000038f0       $unwind$?sort4@SubSortSAH@physx@@QEAAXPEAIIAEAV?$Array@URTreeNodeNQ@physx@@V?$ReflectionAllocator@URTreeNodeNQ@physx@@@shdfnd@2@@shdfnd@2@AEAIIPEAURTreeNodeNQ@2@@Z 000000018002e8f0     RTreeCooking.obj
 0002:00003934       $chain$0$?allocate@?$Array@UInterval@physx@@V?$InlineAllocator@$0CAAA@V?$ReflectionAllocator@UInterval@physx@@@shdfnd@physx@@@shdfnd@2@@shdfnd@physx@@IEAAPEAUInterval@3@I@Z 000000018002e934     RTreeCooking.obj
 0002:00003948       $chain$3$?allocate@?$Array@UInterval@physx@@V?$InlineAllocator@$0CAAA@V?$ReflectionAllocator@UInterval@physx@@@shdfnd@physx@@@shdfnd@2@@shdfnd@physx@@IEAAPEAUInterval@3@I@Z 000000018002e948     RTreeCooking.obj
 0002:00003960       $chain$5$?allocate@?$Array@UInterval@physx@@V?$InlineAllocator@$0CAAA@V?$ReflectionAllocator@UInterval@physx@@@shdfnd@physx@@@shdfnd@2@@shdfnd@physx@@IEAAPEAUInterval@3@I@Z 000000018002e960     RTreeCooking.obj
 0002:00003974       $chain$6$?allocate@?$Array@UInterval@physx@@V?$InlineAllocator@$0CAAA@V?$ReflectionAllocator@UInterval@physx@@@shdfnd@physx@@@shdfnd@2@@shdfnd@physx@@IEAAPEAUInterval@3@I@Z 000000018002e974     RTreeCooking.obj
 0002:00003984       $chain$1$?allocate@?$Array@URTreeNodeQ@Gu@physx@@V?$ReflectionAllocator@URTreeNodeQ@Gu@physx@@@shdfnd@3@@shdfnd@physx@@IEAAPEAURTreeNodeQ@Gu@3@I@Z 000000018002e984     RTreeCooking.obj
 0002:0000399c       $chain$3$?allocate@?$Array@URTreeNodeQ@Gu@physx@@V?$ReflectionAllocator@URTreeNodeQ@Gu@physx@@@shdfnd@3@@shdfnd@physx@@IEAAPEAURTreeNodeQ@Gu@3@I@Z 000000018002e99c     RTreeCooking.obj
 0002:000039b0       $chain$4$?allocate@?$Array@URTreeNodeQ@Gu@physx@@V?$ReflectionAllocator@URTreeNodeQ@Gu@physx@@@shdfnd@3@@shdfnd@physx@@IEAAPEAURTreeNodeQ@Gu@3@I@Z 000000018002e9b0     RTreeCooking.obj
 0002:000039c0       $chain$0$?recreate@?$Array@URTreeNodeQ@Gu@physx@@V?$ReflectionAllocator@URTreeNodeQ@Gu@physx@@@shdfnd@3@@shdfnd@physx@@IEAAXI@Z 000000018002e9c0     RTreeCooking.obj
 0002:000039d4       $chain$1$?recreate@?$Array@URTreeNodeQ@Gu@physx@@V?$ReflectionAllocator@URTreeNodeQ@Gu@physx@@@shdfnd@3@@shdfnd@physx@@IEAAXI@Z 000000018002e9d4     RTreeCooking.obj
 0002:000039e4       $unwind$??$sort@IU?$Less@I@shdfnd@physx@@V?$ReflectionAllocator@I@23@@shdfnd@physx@@YAXPEAIIAEBU?$Less@I@01@AEBV?$ReflectionAllocator@I@01@I@Z 000000018002e9e4     RTreeCooking.obj
 0002:00003a04       $unwind$??$sort@IUSortBoundsPredicate@physx@@V?$ReflectionAllocator@I@shdfnd@2@@shdfnd@physx@@YAXPEAIIAEBUSortBoundsPredicate@1@AEBV?$ReflectionAllocator@I@01@I@Z 000000018002ea04     RTreeCooking.obj
 0002:00003a20       $unwind$??$smallSort@I$$CBUSortBoundsPredicate@physx@@@internal@shdfnd@physx@@YAXPEAIHHAEBUSortBoundsPredicate@2@@Z 000000018002ea20     RTreeCooking.obj
 0002:00003a2c       $chain$6$??$smallSort@I$$CBUSortBoundsPredicate@physx@@@internal@shdfnd@physx@@YAXPEAIHHAEBUSortBoundsPredicate@2@@Z 000000018002ea2c     RTreeCooking.obj
 0002:00003a58       $chain$7$??$smallSort@I$$CBUSortBoundsPredicate@physx@@@internal@shdfnd@physx@@YAXPEAIHHAEBUSortBoundsPredicate@2@@Z 000000018002ea58     RTreeCooking.obj
 0002:00003a68       $unwind$?preallocate@QuickHull@local@@QEAAXI@Z 000000018002ea68     QuickHullConvexHullLib.obj
 0002:00003a68       $unwind$?allocateVertices@MeshDataBase@Gu@physx@@QEAAPEAVPxVec3@3@I@Z 000000018002ea68     TriangleMeshBuilder.obj
 0002:00003a78       $unwind$??0QuickHullConvexHullLib@physx@@QEAA@AEBVPxConvexMeshDesc@1@AEBUPxCookingParams@1@@Z 000000018002ea78     QuickHullConvexHullLib.obj
 0002:00003a78       $unwind$?allocateTriangles@TriangleMeshData@Gu@physx@@QEAAPEAXI_NI@Z 000000018002ea78     TriangleMeshBuilder.obj
 0002:00003a90       $chain$0$??$?_UG@@YAPEAX_KV?$ReflectionAllocator@G@shdfnd@physx@@PEBDH@Z 000000018002ea90     TriangleMeshBuilder.obj
 0002:00003aa4       $chain$1$??$?_UG@@YAPEAX_KV?$ReflectionAllocator@G@shdfnd@physx@@PEBDH@Z 000000018002eaa4     TriangleMeshBuilder.obj
 0002:00003ab4       $chain$0$??$?_UE@@YAPEAX_KV?$ReflectionAllocator@E@shdfnd@physx@@PEBDH@Z 000000018002eab4     TriangleMeshBuilder.obj
 0002:00003ac8       $chain$1$??$?_UE@@YAPEAX_KV?$ReflectionAllocator@E@shdfnd@physx@@PEBDH@Z 000000018002eac8     TriangleMeshBuilder.obj
 0002:00003ad8       $chain$0$??1RTreeTriangleData@Gu@physx@@UEAA@XZ 000000018002ead8     TriangleMeshBuilder.obj
 0002:00003aec       $chain$1$??1RTreeTriangleData@Gu@physx@@UEAA@XZ 000000018002eaec     TriangleMeshBuilder.obj
 0002:00003afc       $unwind$?cleanMesh@TriangleMeshBuilder@physx@@QEAA_N_NPEAW4Enum@PxTriangleMeshCookingResult@2@@Z 000000018002eafc     TriangleMeshBuilder.obj
 0002:00003b14       $chain$0$?cleanMesh@TriangleMeshBuilder@physx@@QEAA_N_NPEAW4Enum@PxTriangleMeshCookingResult@2@@Z 000000018002eb14     TriangleMeshBuilder.obj
 0002:00003b28       $chain$1$?cleanMesh@TriangleMeshBuilder@physx@@QEAA_N_NPEAW4Enum@PxTriangleMeshCookingResult@2@@Z 000000018002eb28     TriangleMeshBuilder.obj
 0002:00003b3c       $chain$2$?cleanMesh@TriangleMeshBuilder@physx@@QEAA_N_NPEAW4Enum@PxTriangleMeshCookingResult@2@@Z 000000018002eb3c     TriangleMeshBuilder.obj
 0002:00003b50       $chain$3$?cleanMesh@TriangleMeshBuilder@physx@@QEAA_N_NPEAW4Enum@PxTriangleMeshCookingResult@2@@Z 000000018002eb50     TriangleMeshBuilder.obj
 0002:00003b60       $chain$7$?cleanMesh@TriangleMeshBuilder@physx@@QEAA_N_NPEAW4Enum@PxTriangleMeshCookingResult@2@@Z 000000018002eb60     TriangleMeshBuilder.obj
 0002:00003b7c       $chain$4$?cleanMesh@TriangleMeshBuilder@physx@@QEAA_N_NPEAW4Enum@PxTriangleMeshCookingResult@2@@Z 000000018002eb7c     TriangleMeshBuilder.obj
 0002:00003b8c       $chain$8$?cleanMesh@TriangleMeshBuilder@physx@@QEAA_N_NPEAW4Enum@PxTriangleMeshCookingResult@2@@Z 000000018002eb8c     TriangleMeshBuilder.obj
 0002:00003b9c       $unwind$?remapTopology@TriangleMeshBuilder@physx@@QEAAXPEBI@Z 000000018002eb9c     TriangleMeshBuilder.obj
 0002:00003ba8       $chain$2$?remapTopology@TriangleMeshBuilder@physx@@QEAAXPEBI@Z 000000018002eba8     TriangleMeshBuilder.obj
 0002:00003bc4       $chain$3$?remapTopology@TriangleMeshBuilder@physx@@QEAAXPEBI@Z 000000018002ebc4     TriangleMeshBuilder.obj
 0002:00003bdc       $chain$4$?remapTopology@TriangleMeshBuilder@physx@@QEAAXPEBI@Z 000000018002ebdc     TriangleMeshBuilder.obj
 0002:00003bec       $unwind$?createSharedEdgeData@TriangleMeshBuilder@physx@@QEAAX_N0@Z 000000018002ebec     TriangleMeshBuilder.obj
 0002:00003bf8       $chain$2$?createSharedEdgeData@TriangleMeshBuilder@physx@@QEAAX_N0@Z 000000018002ebf8     TriangleMeshBuilder.obj
 0002:00003c14       $chain$4$?createSharedEdgeData@TriangleMeshBuilder@physx@@QEAAX_N0@Z 000000018002ec14     TriangleMeshBuilder.obj
 0002:00003c2c       $chain$5$?createSharedEdgeData@TriangleMeshBuilder@physx@@QEAAX_N0@Z 000000018002ec2c     TriangleMeshBuilder.obj
 0002:00003c3c       $chain$6$?createSharedEdgeData@TriangleMeshBuilder@physx@@QEAAX_N0@Z 000000018002ec3c     TriangleMeshBuilder.obj
 0002:00003c4c       $unwind$?createGRBMidPhaseAndData@TriangleMeshBuilder@physx@@QEAAXI@Z 000000018002ec4c     TriangleMeshBuilder.obj
 0002:00003c58       $chain$0$?createGRBMidPhaseAndData@TriangleMeshBuilder@physx@@QEAAXI@Z 000000018002ec58     TriangleMeshBuilder.obj
 0002:00003c6c       $chain$2$?createGRBMidPhaseAndData@TriangleMeshBuilder@physx@@QEAAXI@Z 000000018002ec6c     TriangleMeshBuilder.obj
 0002:00003c84       $chain$5$?createGRBMidPhaseAndData@TriangleMeshBuilder@physx@@QEAAXI@Z 000000018002ec84     TriangleMeshBuilder.obj
 0002:00003ca0       $chain$6$?createGRBMidPhaseAndData@TriangleMeshBuilder@physx@@QEAAXI@Z 000000018002eca0     TriangleMeshBuilder.obj
 0002:00003cb8       $chain$7$?createGRBMidPhaseAndData@TriangleMeshBuilder@physx@@QEAAXI@Z 000000018002ecb8     TriangleMeshBuilder.obj
 0002:00003ccc       $chain$8$?createGRBMidPhaseAndData@TriangleMeshBuilder@physx@@QEAAXI@Z 000000018002eccc     TriangleMeshBuilder.obj
 0002:00003ce0       $chain$9$?createGRBMidPhaseAndData@TriangleMeshBuilder@physx@@QEAAXI@Z 000000018002ece0     TriangleMeshBuilder.obj
 0002:00003cf4       $chain$10$?createGRBMidPhaseAndData@TriangleMeshBuilder@physx@@QEAAXI@Z 000000018002ecf4     TriangleMeshBuilder.obj
 0002:00003d04       $unwind$?loadFromDesc@TriangleMeshBuilder@physx@@QEAA_NAEBVPxTriangleMeshDesc@2@PEAW4Enum@PxTriangleMeshCookingResult@2@_N@Z 000000018002ed04     TriangleMeshBuilder.obj
 0002:00003d14       $chain$1$?loadFromDesc@TriangleMeshBuilder@physx@@QEAA_NAEBVPxTriangleMeshDesc@2@PEAW4Enum@PxTriangleMeshCookingResult@2@_N@Z 000000018002ed14     TriangleMeshBuilder.obj
 0002:00003d2c       $chain$2$?loadFromDesc@TriangleMeshBuilder@physx@@QEAA_NAEBVPxTriangleMeshDesc@2@PEAW4Enum@PxTriangleMeshCookingResult@2@_N@Z 000000018002ed2c     TriangleMeshBuilder.obj
 0002:00003d40       $chain$3$?loadFromDesc@TriangleMeshBuilder@physx@@QEAA_NAEBVPxTriangleMeshDesc@2@PEAW4Enum@PxTriangleMeshCookingResult@2@_N@Z 000000018002ed40     TriangleMeshBuilder.obj
 0002:00003d50       $chain$5$?loadFromDesc@TriangleMeshBuilder@physx@@QEAA_NAEBVPxTriangleMeshDesc@2@PEAW4Enum@PxTriangleMeshCookingResult@2@_N@Z 000000018002ed50     TriangleMeshBuilder.obj
 0002:00003d68       $chain$6$?loadFromDesc@TriangleMeshBuilder@physx@@QEAA_NAEBVPxTriangleMeshDesc@2@PEAW4Enum@PxTriangleMeshCookingResult@2@_N@Z 000000018002ed68     TriangleMeshBuilder.obj
 0002:00003d78       $unwind$?save@TriangleMeshBuilder@physx@@QEBA_NAEAVPxOutputStream@2@_NAEBUPxCookingParams@2@@Z 000000018002ed78     TriangleMeshBuilder.obj
 0002:00003d94       $chain$3$?save@TriangleMeshBuilder@physx@@QEBA_NAEAVPxOutputStream@2@_NAEBUPxCookingParams@2@@Z 000000018002ed94     TriangleMeshBuilder.obj
 0002:00003da8       $unwind$?checkMeshIndicesSize@TriangleMeshBuilder@physx@@QEAAXXZ 000000018002eda8     TriangleMeshBuilder.obj
 0002:00003db4       $chain$2$?checkMeshIndicesSize@TriangleMeshBuilder@physx@@QEAAXXZ 000000018002edb4     TriangleMeshBuilder.obj
 0002:00003dd0       $chain$4$?checkMeshIndicesSize@TriangleMeshBuilder@physx@@QEAAXXZ 000000018002edd0     TriangleMeshBuilder.obj
 0002:00003de8       $chain$5$?checkMeshIndicesSize@TriangleMeshBuilder@physx@@QEAAXXZ 000000018002ede8     TriangleMeshBuilder.obj
 0002:00003dfc       $chain$6$?checkMeshIndicesSize@TriangleMeshBuilder@physx@@QEAAXXZ 000000018002edfc     TriangleMeshBuilder.obj
 0002:00003e0c       $unwind$?copy@ConvexHullBuilder@physx@@QEAA_NAEAUConvexHullData@Gu@2@AEAI@Z 000000018002ee0c     ConvexHullBuilder.obj
 0002:00003e0c       $unwind$?importMesh@TriangleMeshBuilder@physx@@IEAA_NAEBVPxTriangleMeshDesc@2@AEBUPxCookingParams@2@PEAW4Enum@PxTriangleMeshCookingResult@2@_N@Z 000000018002ee0c     TriangleMeshBuilder.obj
 0002:00003e28       $unwind$?createMidPhaseStructure@RTreeTriangleMeshBuilder@physx@@UEAAXXZ 000000018002ee28     TriangleMeshBuilder.obj
 0002:00003e30       $unwind$?saveMidPhaseStructure@RTreeTriangleMeshBuilder@physx@@UEBAXAEAVPxOutputStream@2@_N@Z 000000018002ee30     TriangleMeshBuilder.obj
 0002:00003e40       $chain$0$?saveMidPhaseStructure@RTreeTriangleMeshBuilder@physx@@UEBAXAEAVPxOutputStream@2@_N@Z 000000018002ee40     TriangleMeshBuilder.obj
 0002:00003e54       $chain$1$?saveMidPhaseStructure@RTreeTriangleMeshBuilder@physx@@UEBAXAEAVPxOutputStream@2@_N@Z 000000018002ee54     TriangleMeshBuilder.obj
 0002:00003e64       $unwind$?createMidPhaseStructure@BV4TriangleMeshBuilder@physx@@UEAAXXZ 000000018002ee64     TriangleMeshBuilder.obj
 0002:00003e70       $chain$2$?createMidPhaseStructure@BV4TriangleMeshBuilder@physx@@UEAAXXZ 000000018002ee70     TriangleMeshBuilder.obj
 0002:00003e8c       $chain$3$?createMidPhaseStructure@BV4TriangleMeshBuilder@physx@@UEAAXXZ 000000018002ee8c     TriangleMeshBuilder.obj
 0002:00003ea0       $chain$4$?createMidPhaseStructure@BV4TriangleMeshBuilder@physx@@UEAAXXZ 000000018002eea0     TriangleMeshBuilder.obj
 0002:00003eb0       $chain$5$?createMidPhaseStructure@BV4TriangleMeshBuilder@physx@@UEAAXXZ 000000018002eeb0     TriangleMeshBuilder.obj
 0002:00003ec4       $unwind$?findAdjacent@physx@@YAIPEBVPxVec3@1@0PEBUuint3@1@IIIAEBVPxPlane@1@PEAUEdgeTriLookup@1@I@Z 000000018002eec4     TriangleMeshBuilder.obj
 0002:00003ee8       $unwind$?buildAdjacencies@physx@@YAXPEAUuint4@1@PEAVPxVec3@1@PEBV31@PEBUuint3@1@I@Z 000000018002eee8     TriangleMeshBuilder.obj
 0002:00003ef4       $chain$3$?buildAdjacencies@physx@@YAXPEAUuint4@1@PEAVPxVec3@1@PEBV31@PEBUuint3@1@I@Z 000000018002eef4     TriangleMeshBuilder.obj
 0002:00003f14       $chain$7$?buildAdjacencies@physx@@YAXPEAUuint4@1@PEAVPxVec3@1@PEBV31@PEBUuint3@1@I@Z 000000018002ef14     TriangleMeshBuilder.obj
 0002:00003f34       $chain$12$?buildAdjacencies@physx@@YAXPEAUuint4@1@PEAVPxVec3@1@PEBV31@PEBUuint3@1@I@Z 000000018002ef34     TriangleMeshBuilder.obj
 0002:00003f58       $chain$13$?buildAdjacencies@physx@@YAXPEAUuint4@1@PEAVPxVec3@1@PEBV31@PEBUuint3@1@I@Z 000000018002ef58     TriangleMeshBuilder.obj
 0002:00003f68       $chain$14$?buildAdjacencies@physx@@YAXPEAUuint4@1@PEAVPxVec3@1@PEBV31@PEBUuint3@1@I@Z 000000018002ef68     TriangleMeshBuilder.obj
 0002:00003f78       $chain$15$?buildAdjacencies@physx@@YAXPEAUuint4@1@PEAVPxVec3@1@PEBV31@PEBUuint3@1@I@Z 000000018002ef78     TriangleMeshBuilder.obj
 0002:00003f88       $unwind$??$sort@UEdgeTriLookup@physx@@U?$Less@UEdgeTriLookup@physx@@@shdfnd@2@V?$ReflectionAllocator@UEdgeTriLookup@physx@@@42@@shdfnd@physx@@YAXPEAUEdgeTriLookup@1@IAEBU?$Less@UEdgeTriLookup@physx@@@01@AEBV?$ReflectionAllocator@UEdgeTriLookup@physx@@@01@I@Z 000000018002ef88     TriangleMeshBuilder.obj
 0002:00003fa4       $unwind$??$median3@UEdgeTriLookup@physx@@$$CBU?$Less@UEdgeTriLookup@physx@@@shdfnd@2@@internal@shdfnd@physx@@YAXPEAUEdgeTriLookup@2@HHAEBU?$Less@UEdgeTriLookup@physx@@@12@@Z 000000018002efa4     TriangleMeshBuilder.obj
 0002:00003fa4       $unwind$?DloadObtainSection@@YAPEAXPEAK0@Z 000000018002efa4     Delayimp:delayhlp.obj
 0002:00003fb4       $unwind$?precompute@BigConvexDataBuilder@physx@@QEAA_NI@Z 000000018002efb4     BigConvexDataBuilder.obj
 0002:00003fcc       $chain$10$?precompute@BigConvexDataBuilder@physx@@QEAA_NI@Z 000000018002efcc     BigConvexDataBuilder.obj
 0002:00004008       $chain$11$?precompute@BigConvexDataBuilder@physx@@QEAA_NI@Z 000000018002f008     BigConvexDataBuilder.obj
 0002:00004018       $unwind$?save@BigConvexDataBuilder@physx@@QEBA_NAEAVPxOutputStream@2@_N@Z 000000018002f018     BigConvexDataBuilder.obj
 0002:00004028       $unwind$?computeValencies@BigConvexDataBuilder@physx@@QEAA_NAEBVConvexHullBuilder@2@@Z 000000018002f028     BigConvexDataBuilder.obj
 0002:00004040       $unwind$?saveValencies@BigConvexDataBuilder@physx@@QEBA_NAEAVPxOutputStream@2@_N@Z 000000018002f040     BigConvexDataBuilder.obj
 0002:0000404c       $chain$1$?saveValencies@BigConvexDataBuilder@physx@@QEBA_NAEAVPxOutputStream@2@_N@Z 000000018002f04c     BigConvexDataBuilder.obj
 0002:00004064       $chain$2$?saveValencies@BigConvexDataBuilder@physx@@QEBA_NAEAVPxOutputStream@2@_N@Z 000000018002f064     BigConvexDataBuilder.obj
 0002:00004078       $chain$3$?saveValencies@BigConvexDataBuilder@physx@@QEBA_NAEAVPxOutputStream@2@_N@Z 000000018002f078     BigConvexDataBuilder.obj
 0002:00004088       $chain$4$?saveValencies@BigConvexDataBuilder@physx@@QEBA_NAEAVPxOutputStream@2@_N@Z 000000018002f088     BigConvexDataBuilder.obj
 0002:0000409c       $unwind$?init@ConvexHullBuilder@physx@@QEAA_NIPEBVPxVec3@2@PEBIIIPEBUPxHullPolygon@2@_NPEAVConvexHullLib@2@@Z 000000018002f09c     ConvexHullBuilder.obj
 0002:000040b4       $chain$0$?init@ConvexHullBuilder@physx@@QEAA_NIPEBVPxVec3@2@PEBIIIPEBUPxHullPolygon@2@_NPEAVConvexHullLib@2@@Z 000000018002f0b4     ConvexHullBuilder.obj
 0002:000040c8       $chain$3$?init@ConvexHullBuilder@physx@@QEAA_NIPEBVPxVec3@2@PEBIIIPEBUPxHullPolygon@2@_NPEAVConvexHullLib@2@@Z 000000018002f0c8     ConvexHullBuilder.obj
 0002:000040e4       $chain$4$?init@ConvexHullBuilder@physx@@QEAA_NIPEBVPxVec3@2@PEBIIIPEBUPxHullPolygon@2@_NPEAVConvexHullLib@2@@Z 000000018002f0e4     ConvexHullBuilder.obj
 0002:000040f4       $chain$5$?init@ConvexHullBuilder@physx@@QEAA_NIPEBVPxVec3@2@PEBIIIPEBUPxHullPolygon@2@_NPEAVConvexHullLib@2@@Z 000000018002f0f4     ConvexHullBuilder.obj
 0002:00004104       $unwind$?save@ConvexHullBuilder@physx@@QEBA_NAEAVPxOutputStream@2@_N@Z 000000018002f104     ConvexHullBuilder.obj
 0002:00004118       $chain$3$?save@ConvexHullBuilder@physx@@QEBA_NAEAVPxOutputStream@2@_N@Z 000000018002f118     ConvexHullBuilder.obj
 0002:00004134       $chain$4$?save@ConvexHullBuilder@physx@@QEBA_NAEAVPxOutputStream@2@_N@Z 000000018002f134     ConvexHullBuilder.obj
 0002:0000414c       $chain$5$?save@ConvexHullBuilder@physx@@QEBA_NAEAVPxOutputStream@2@_N@Z 000000018002f14c     ConvexHullBuilder.obj
 0002:00004160       $chain$6$?save@ConvexHullBuilder@physx@@QEBA_NAEAVPxOutputStream@2@_N@Z 000000018002f160     ConvexHullBuilder.obj
 0002:00004170       $unwind$?createEdgeList@ConvexHullBuilder@physx@@QEAA_N_NI@Z 000000018002f170     ConvexHullBuilder.obj
 0002:00004180       $chain$4$?createEdgeList@ConvexHullBuilder@physx@@QEAA_N_NI@Z 000000018002f180     ConvexHullBuilder.obj
 0002:000041a4       $chain$6$?createEdgeList@ConvexHullBuilder@physx@@QEAA_N_NI@Z 000000018002f1a4     ConvexHullBuilder.obj
 0002:000041c8       $unwind$?checkHullPolygons@ConvexHullBuilder@physx@@QEBA_NXZ 000000018002f1c8     ConvexHullBuilder.obj
 0002:000041d4       $chain$5$?checkHullPolygons@ConvexHullBuilder@physx@@QEBA_NXZ 000000018002f1d4     ConvexHullBuilder.obj
 0002:000041fc       $chain$14$?checkHullPolygons@ConvexHullBuilder@physx@@QEBA_NXZ 000000018002f1fc     ConvexHullBuilder.obj
 0002:00004230       $chain$15$?checkHullPolygons@ConvexHullBuilder@physx@@QEBA_NXZ 000000018002f230     ConvexHullBuilder.obj
 0002:00004258       $chain$17$?checkHullPolygons@ConvexHullBuilder@physx@@QEBA_NXZ 000000018002f258     ConvexHullBuilder.obj
 0002:00004298       $chain$18$?checkHullPolygons@ConvexHullBuilder@physx@@QEBA_NXZ 000000018002f298     ConvexHullBuilder.obj
 0002:000042a8       $unwind$?calculateVertexMapTable@ConvexHullBuilder@physx@@QEAA_NI_N@Z 000000018002f2a8     ConvexHullBuilder.obj
 0002:000042c0       $unwind$?computeGeomCenter@ConvexHullBuilder@physx@@IEBA_NAEAVPxVec3@2@IPEAUHullTriangleData@2@@Z 000000018002f2c0     ConvexHullBuilder.obj
 0002:000042c8       $chain$1$?computeGeomCenter@ConvexHullBuilder@physx@@IEBA_NAEAVPxVec3@2@IPEAUHullTriangleData@2@@Z 000000018002f2c8     ConvexHullBuilder.obj
 0002:000042e0       $chain$9$?computeGeomCenter@ConvexHullBuilder@physx@@IEBA_NAEAVPxVec3@2@IPEAUHullTriangleData@2@@Z 000000018002f2e0     ConvexHullBuilder.obj
 0002:00004310       $chain$10$?computeGeomCenter@ConvexHullBuilder@physx@@IEBA_NAEAVPxVec3@2@IPEAUHullTriangleData@2@@Z 000000018002f310     ConvexHullBuilder.obj
 0002:00004320       $chain$11$?computeGeomCenter@ConvexHullBuilder@physx@@IEBA_NAEAVPxVec3@2@IPEAUHullTriangleData@2@@Z 000000018002f320     ConvexHullBuilder.obj
 0002:00004330       $unwind$?cleanupVertices@ConvexHullLib@physx@@IEAA_NIPEBVPxVec3@2@IAEAIPEAV32@AEAV32@3@Z 000000018002f330     ConvexHullLib.obj
 0002:00004348       $chain$3$?cleanupVertices@ConvexHullLib@physx@@IEAA_NIPEBVPxVec3@2@IAEAIPEAV32@AEAV32@3@Z 000000018002f348     ConvexHullLib.obj
 0002:00004368       $chain$5$?cleanupVertices@ConvexHullLib@physx@@IEAA_NIPEBVPxVec3@2@IAEAIPEAV32@AEAV32@3@Z 000000018002f368     ConvexHullLib.obj
 0002:00004380       $chain$11$?cleanupVertices@ConvexHullLib@physx@@IEAA_NIPEBVPxVec3@2@IAEAIPEAV32@AEAV32@3@Z 000000018002f380     ConvexHullLib.obj
 0002:000043a8       $chain$12$?cleanupVertices@ConvexHullLib@physx@@IEAA_NIPEBVPxVec3@2@IAEAIPEAV32@AEAV32@3@Z 000000018002f3a8     ConvexHullLib.obj
 0002:000043b8       $chain$13$?cleanupVertices@ConvexHullLib@physx@@IEAA_NIPEBVPxVec3@2@IAEAIPEAV32@AEAV32@3@Z 000000018002f3b8     ConvexHullLib.obj
 0002:000043c8       $chain$14$?cleanupVertices@ConvexHullLib@physx@@IEAA_NIPEBVPxVec3@2@IAEAIPEAV32@AEAV32@3@Z 000000018002f3c8     ConvexHullLib.obj
 0002:000043d8       $unwind$?shiftAndcleanupVertices@ConvexHullLib@physx@@IEAA_NIPEBVPxVec3@2@IAEAIPEAV32@AEAV32@3@Z 000000018002f3d8     ConvexHullLib.obj
 0002:000043f4       $chain$5$?shiftAndcleanupVertices@ConvexHullLib@physx@@IEAA_NIPEBVPxVec3@2@IAEAIPEAV32@AEAV32@3@Z 000000018002f3f4     ConvexHullLib.obj
 0002:0000441c       $chain$7$?shiftAndcleanupVertices@ConvexHullLib@physx@@IEAA_NIPEBVPxVec3@2@IAEAIPEAV32@AEAV32@3@Z 000000018002f41c     ConvexHullLib.obj
 0002:00004434       $chain$8$?shiftAndcleanupVertices@ConvexHullLib@physx@@IEAA_NIPEBVPxVec3@2@IAEAIPEAV32@AEAV32@3@Z 000000018002f434     ConvexHullLib.obj
 0002:00004444       $chain$9$?shiftAndcleanupVertices@ConvexHullLib@physx@@IEAA_NIPEBVPxVec3@2@IAEAIPEAV32@AEAV32@3@Z 000000018002f444     ConvexHullLib.obj
 0002:00004454       $unwind$?swapLargestFace@ConvexHullLib@physx@@IEAAXAEAVPxConvexMeshDesc@2@@Z 000000018002f454     ConvexHullLib.obj
 0002:00004464       $chain$1$?swapLargestFace@ConvexHullLib@physx@@IEAAXAEAVPxConvexMeshDesc@2@@Z 000000018002f464     ConvexHullLib.obj
 0002:0000447c       $chain$2$?swapLargestFace@ConvexHullLib@physx@@IEAAXAEAVPxConvexMeshDesc@2@@Z 000000018002f47c     ConvexHullLib.obj
 0002:00004490       $chain$3$?swapLargestFace@ConvexHullLib@physx@@IEAAXAEAVPxConvexMeshDesc@2@@Z 000000018002f490     ConvexHullLib.obj
 0002:000044a0       $chain$4$?swapLargestFace@ConvexHullLib@physx@@IEAAXAEAVPxConvexMeshDesc@2@@Z 000000018002f4a0     ConvexHullLib.obj
 0002:000044b0       $unwind$?shiftConvexMeshDesc@ConvexHullLib@physx@@IEAAXAEAVPxConvexMeshDesc@2@@Z 000000018002f4b0     ConvexHullLib.obj
 0002:000044b8       $unwind$?checkPointsAABBValidity@local@@YA_NIPEBVPxVec3@physx@@IMMAEAV23@1AEAIPEAV23@_N@Z 000000018002f4b8     ConvexHullLib.obj
 0002:000044d8       $unwind$??0PxQuat@physx@@QEAA@AEBVPxMat33@1@@Z 000000018002f4d8     ConvexHullUtils.obj
 0002:000044e0       $chain$1$??0PxQuat@physx@@QEAA@AEBVPxMat33@1@@Z 000000018002f4e0     ConvexHullUtils.obj
 0002:000044f8       $chain$2$??0PxQuat@physx@@QEAA@AEBVPxMat33@1@@Z 000000018002f4f8     ConvexHullUtils.obj
 0002:00004508       $unwind$?getInverse@PxMat33@physx@@QEBA?BV12@XZ 000000018002f508     ConvexHullUtils.obj
 0002:0000452c       $chain$2$?getInverse@PxMat33@physx@@QEBA?BV12@XZ 000000018002f52c     ConvexHullUtils.obj
 0002:00004548       $chain$3$?getInverse@PxMat33@physx@@QEBA?BV12@XZ 000000018002f548     ConvexHullUtils.obj
 0002:00004558       $unwind$??0ConvexHull@physx@@QEAA@AEBVPxVec3@1@AEBVPxTransform@1@AEBV?$Array@VPxPlane@physx@@V?$ReflectionAllocator@VPxPlane@physx@@@shdfnd@2@@shdfnd@1@@Z 000000018002f558     ConvexHullUtils.obj
 0002:00004594       $unwind$?findCandidatePlane@ConvexHull@physx@@QEBAHMM@Z 000000018002f594     ConvexHullUtils.obj
 0002:000045ac       $chain$12$?findCandidatePlane@ConvexHull@physx@@QEBAHMM@Z 000000018002f5ac     ConvexHullUtils.obj
 0002:000045f0       $chain$13$?findCandidatePlane@ConvexHull@physx@@QEBAHMM@Z 000000018002f5f0     ConvexHullUtils.obj
 0002:00004600       $unwind$?assertIntact@ConvexHull@physx@@QEBA_NM@Z 000000018002f600     ConvexHullUtils.obj
 0002:00004638       $unwind$?maxNumVertsPerFace@ConvexHull@physx@@QEBAIXZ 000000018002f638     ConvexHullUtils.obj
 0002:00004644       $chain$0$?maxNumVertsPerFace@ConvexHull@physx@@QEBAIXZ 000000018002f644     ConvexHullUtils.obj
 0002:00004658       $chain$1$?maxNumVertsPerFace@ConvexHull@physx@@QEBAIXZ 000000018002f658     ConvexHullUtils.obj
 0002:00004668       $chain$1$?allocate@?$Array@VHalfEdge@ConvexHull@physx@@V?$ReflectionAllocator@VHalfEdge@ConvexHull@physx@@@shdfnd@3@@shdfnd@physx@@IEAAPEAVHalfEdge@ConvexHull@3@I@Z 000000018002f668     ConvexHullUtils.obj
 0002:00004680       $chain$3$?allocate@?$Array@VHalfEdge@ConvexHull@physx@@V?$ReflectionAllocator@VHalfEdge@ConvexHull@physx@@@shdfnd@3@@shdfnd@physx@@IEAAPEAVHalfEdge@ConvexHull@3@I@Z 000000018002f680     ConvexHullUtils.obj
 0002:00004694       $chain$4$?allocate@?$Array@VHalfEdge@ConvexHull@physx@@V?$ReflectionAllocator@VHalfEdge@ConvexHull@physx@@@shdfnd@3@@shdfnd@physx@@IEAAPEAVHalfEdge@ConvexHull@3@I@Z 000000018002f694     ConvexHullUtils.obj
 0002:000046a4       $chain$0$?growAndPushBack@?$Array@VHalfEdge@ConvexHull@physx@@V?$ReflectionAllocator@VHalfEdge@ConvexHull@physx@@@shdfnd@3@@shdfnd@physx@@IEAAAEAVHalfEdge@ConvexHull@3@AEBV453@@Z 000000018002f6a4     ConvexHullUtils.obj
 0002:000046b8       $chain$2$?growAndPushBack@?$Array@VHalfEdge@ConvexHull@physx@@V?$ReflectionAllocator@VHalfEdge@ConvexHull@physx@@@shdfnd@3@@shdfnd@physx@@IEAAAEAVHalfEdge@ConvexHull@3@AEBV453@@Z 000000018002f6b8     ConvexHullUtils.obj
 0002:000046cc       $chain$1$?growAndPushBack@?$Array@VHalfEdge@ConvexHull@physx@@V?$ReflectionAllocator@VHalfEdge@ConvexHull@physx@@@shdfnd@3@@shdfnd@physx@@IEAAAEAVHalfEdge@ConvexHull@3@AEBV453@@Z 000000018002f6cc     ConvexHullUtils.obj
 0002:000046dc       $chain$0$?recreate@?$Array@VHalfEdge@ConvexHull@physx@@V?$ReflectionAllocator@VHalfEdge@ConvexHull@physx@@@shdfnd@3@@shdfnd@physx@@IEAAXI@Z 000000018002f6dc     ConvexHullUtils.obj
 0002:000046f0       $chain$1$?recreate@?$Array@VHalfEdge@ConvexHull@physx@@V?$ReflectionAllocator@VHalfEdge@ConvexHull@physx@@@shdfnd@3@@shdfnd@physx@@IEAAXI@Z 000000018002f6f0     ConvexHullUtils.obj
 0002:00004700       $chain$1$?allocate@?$Array@VPxPlane@physx@@V?$ReflectionAllocator@VPxPlane@physx@@@shdfnd@2@@shdfnd@physx@@IEAAPEAVPxPlane@3@I@Z 000000018002f700     ConvexHullUtils.obj
 0002:00004718       $chain$3$?allocate@?$Array@VPxPlane@physx@@V?$ReflectionAllocator@VPxPlane@physx@@@shdfnd@2@@shdfnd@physx@@IEAAPEAVPxPlane@3@I@Z 000000018002f718     ConvexHullUtils.obj
 0002:0000472c       $chain$4$?allocate@?$Array@VPxPlane@physx@@V?$ReflectionAllocator@VPxPlane@physx@@@shdfnd@2@@shdfnd@physx@@IEAAPEAVPxPlane@3@I@Z 000000018002f72c     ConvexHullUtils.obj
 0002:0000473c       $chain$0$?growAndPushBack@?$Array@VPxPlane@physx@@V?$ReflectionAllocator@VPxPlane@physx@@@shdfnd@2@@shdfnd@physx@@IEAAAEAVPxPlane@3@AEBV43@@Z 000000018002f73c     ConvexHullUtils.obj
 0002:00004750       $chain$2$?growAndPushBack@?$Array@VPxPlane@physx@@V?$ReflectionAllocator@VPxPlane@physx@@@shdfnd@2@@shdfnd@physx@@IEAAAEAVPxPlane@3@AEBV43@@Z 000000018002f750     ConvexHullUtils.obj
 0002:00004764       $chain$1$?growAndPushBack@?$Array@VPxPlane@physx@@V?$ReflectionAllocator@VPxPlane@physx@@@shdfnd@2@@shdfnd@physx@@IEAAAEAVPxPlane@3@AEBV43@@Z 000000018002f764     ConvexHullUtils.obj
 0002:00004774       $unwind$?convexHullCrop@physx@@YAPEAVConvexHull@1@AEBV21@AEBVPxPlane@1@M@Z 000000018002f774     ConvexHullUtils.obj
 0002:00004784       $chain$6$?convexHullCrop@physx@@YAPEAVConvexHull@1@AEBV21@AEBVPxPlane@1@M@Z 000000018002f784     ConvexHullUtils.obj
 0002:000047b0       $chain$7$?convexHullCrop@physx@@YAPEAVConvexHull@1@AEBV21@AEBVPxPlane@1@M@Z 000000018002f7b0     ConvexHullUtils.obj
 0002:000047c4       $chain$10$?convexHullCrop@physx@@YAPEAVConvexHull@1@AEBV21@AEBVPxPlane@1@M@Z 000000018002f7c4     ConvexHullUtils.obj
 0002:000047c4       $chain$8$?convexHullCrop@physx@@YAPEAVConvexHull@1@AEBV21@AEBVPxPlane@1@M@Z 000000018002f7c4     ConvexHullUtils.obj
 0002:000047d4       $chain$9$?convexHullCrop@physx@@YAPEAVConvexHull@1@AEBV21@AEBVPxPlane@1@M@Z 000000018002f7d4     ConvexHullUtils.obj
 0002:000047e8       $chain$11$?convexHullCrop@physx@@YAPEAVConvexHull@1@AEBV21@AEBVPxPlane@1@M@Z 000000018002f7e8     ConvexHullUtils.obj
 0002:000047f8       $unwind$?computeOBBFromConvex@physx@@YA_NAEBVPxConvexMeshDesc@1@AEAVPxVec3@1@AEAVPxTransform@1@@Z 000000018002f7f8     ConvexHullUtils.obj
 0002:00004818       $chain$5$?computeOBBFromConvex@physx@@YA_NAEBVPxConvexMeshDesc@1@AEAVPxVec3@1@AEAVPxTransform@1@@Z 000000018002f818     ConvexHullUtils.obj
 0002:00004840       $chain$6$?computeOBBFromConvex@physx@@YA_NAEBVPxConvexMeshDesc@1@AEAVPxVec3@1@AEAVPxTransform@1@@Z 000000018002f840     ConvexHullUtils.obj
 0002:00004850       $unwind$?rotate@Box@Gu@physx@@QEBA?AVPxVec3@3@AEBV43@@Z 000000018002f850     ConvexHullUtils.obj
 0002:0000485c       $unwind$?rotateInv@Box@Gu@physx@@QEBA?AVPxVec3@3@AEBV43@@Z 000000018002f85c     ConvexHullUtils.obj
 0002:00004868       $unwind$?transform@Box@Gu@physx@@QEBA?AVPxVec3@3@AEBV43@@Z 000000018002f868     ConvexHullUtils.obj
 0002:00004874       $unwind$?computeAABBExtent@Box@Gu@physx@@QEBA?AVPxVec3@3@XZ 000000018002f874     ConvexHullUtils.obj
 0002:00004880       $unwind$?computeOBBSIMD@local@@YAXIPEBT__m128@@AEAT2@AEBT2@1@Z 000000018002f880     ConvexHullUtils.obj
 0002:000048a4       $chain$1$?computeOBBSIMD@local@@YAXIPEBT__m128@@AEAT2@AEBT2@1@Z 000000018002f8a4     ConvexHullUtils.obj
 0002:000048bc       $chain$2$?computeOBBSIMD@local@@YAXIPEBT__m128@@AEAT2@AEBT2@1@Z 000000018002f8bc     ConvexHullUtils.obj
 0002:000048cc       $unwind$?build@ConvexMeshBuilder@physx@@QEAA_NAEBVPxConvexMeshDesc@2@I_NPEAVConvexHullLib@2@@Z 000000018002f8cc     ConvexMeshBuilder.obj
 0002:000048dc       $chain$0$?build@ConvexMeshBuilder@physx@@QEAA_NAEBVPxConvexMeshDesc@2@I_NPEAVConvexHullLib@2@@Z 000000018002f8dc     ConvexMeshBuilder.obj
 0002:000048f0       $chain$2$?build@ConvexMeshBuilder@physx@@QEAA_NAEBVPxConvexMeshDesc@2@I_NPEAVConvexHullLib@2@@Z 000000018002f8f0     ConvexMeshBuilder.obj
 0002:00004908       $chain$3$?build@ConvexMeshBuilder@physx@@QEAA_NAEBVPxConvexMeshDesc@2@I_NPEAVConvexHullLib@2@@Z 000000018002f908     ConvexMeshBuilder.obj
 0002:00004918       $chain$4$?build@ConvexMeshBuilder@physx@@QEAA_NAEBVPxConvexMeshDesc@2@I_NPEAVConvexHullLib@2@@Z 000000018002f918     ConvexMeshBuilder.obj
 0002:00004928       $unwind$?save@ConvexMeshBuilder@physx@@QEBA_NAEAVPxOutputStream@2@_N@Z 000000018002f928     ConvexMeshBuilder.obj
 0002:00004938       $chain$0$?save@ConvexMeshBuilder@physx@@QEBA_NAEAVPxOutputStream@2@_N@Z 000000018002f938     ConvexMeshBuilder.obj
 0002:0000494c       $chain$1$?save@ConvexMeshBuilder@physx@@QEBA_NAEAVPxOutputStream@2@_N@Z 000000018002f94c     ConvexMeshBuilder.obj
 0002:0000495c       $unwind$?loadConvexHull@ConvexMeshBuilder@physx@@QEAA_NAEBVPxConvexMeshDesc@2@PEAVConvexHullLib@2@@Z 000000018002f95c     ConvexMeshBuilder.obj
 0002:0000497c       $unwind$?computeHullPolygons@ConvexMeshBuilder@physx@@QEAA_NAEBIPEBVPxVec3@2@0PEBIAEAVPxAllocatorCallback@2@AEAIAEAPEAV32@4AEAPEAI4AEAPEAUPxHullPolygon@2@@Z 000000018002f97c     ConvexMeshBuilder.obj
 0002:00004988       $chain$4$?computeHullPolygons@ConvexMeshBuilder@physx@@QEAA_NAEBIPEBVPxVec3@2@0PEBIAEAVPxAllocatorCallback@2@AEAIAEAPEAV32@4AEAPEAI4AEAPEAUPxHullPolygon@2@@Z 000000018002f988     ConvexMeshBuilder.obj
 0002:000049a8       $chain$5$?computeHullPolygons@ConvexMeshBuilder@physx@@QEAA_NAEBIPEBVPxVec3@2@0PEBIAEAVPxAllocatorCallback@2@AEAIAEAPEAV32@4AEAPEAI4AEAPEAUPxHullPolygon@2@@Z 000000018002f9a8     ConvexMeshBuilder.obj
 0002:000049c0       $unwind$?computeMassInfo@ConvexMeshBuilder@physx@@QEAAX_N@Z 000000018002f9c0     ConvexMeshBuilder.obj
 0002:000049d0       $chain$1$?computeMassInfo@ConvexMeshBuilder@physx@@QEAAX_N@Z 000000018002f9d0     ConvexMeshBuilder.obj
 0002:000049e8       $chain$2$?computeMassInfo@ConvexMeshBuilder@physx@@QEAAX_N@Z 000000018002f9e8     ConvexMeshBuilder.obj
 0002:000049fc       $chain$6$?computeMassInfo@ConvexMeshBuilder@physx@@QEAAX_N@Z 000000018002f9fc     ConvexMeshBuilder.obj
 0002:00004a1c       $chain$7$?computeMassInfo@ConvexMeshBuilder@physx@@QEAAX_N@Z 000000018002fa1c     ConvexMeshBuilder.obj
 0002:00004a2c       $chain$8$?computeMassInfo@ConvexMeshBuilder@physx@@QEAAX_N@Z 000000018002fa2c     ConvexMeshBuilder.obj
 0002:00004a3c       $chain$9$?computeMassInfo@ConvexMeshBuilder@physx@@QEAAX_N@Z 000000018002fa3c     ConvexMeshBuilder.obj
 0002:00004a4c       $unwind$?ComputeInternalExtent@@YAXAEAUConvexHullData@Gu@physx@@PEBUHullPolygonData@23@@Z 000000018002fa4c     ConvexMeshBuilder.obj
 0002:00004a60       $chain$4$?ComputeInternalExtent@@YAXAEAUConvexHullData@Gu@physx@@PEBUHullPolygonData@23@@Z 000000018002fa60     ConvexMeshBuilder.obj
 0002:00004a84       $chain$5$?ComputeInternalExtent@@YAXAEAUConvexHullData@Gu@physx@@PEBUHullPolygonData@23@@Z 000000018002fa84     ConvexMeshBuilder.obj
 0002:00004a98       $chain$7$?ComputeInternalExtent@@YAXAEAUConvexHullData@Gu@physx@@PEBUHullPolygonData@23@@Z 000000018002fa98     ConvexMeshBuilder.obj
 0002:00004aac       $chain$6$?ComputeInternalExtent@@YAXAEAUConvexHullData@Gu@physx@@PEBUHullPolygonData@23@@Z 000000018002faac     ConvexMeshBuilder.obj
 0002:00004abc       $chain$8$?ComputeInternalExtent@@YAXAEAUConvexHullData@Gu@physx@@PEBUHullPolygonData@23@@Z 000000018002fabc     ConvexMeshBuilder.obj
 0002:00004acc       $unwind$?computeHullPolygons@ConvexPolygonsBuilder@physx@@QEAA_NAEBIPEBVPxVec3@2@0PEBI@Z 000000018002facc     ConvexPolygonsBuilder.obj
 0002:00004af0       $chain$0$?computeHullPolygons@ConvexPolygonsBuilder@physx@@QEAA_NAEBIPEBVPxVec3@2@0PEBI@Z 000000018002faf0     ConvexPolygonsBuilder.obj
 0002:00004b04       $chain$8$?computeHullPolygons@ConvexPolygonsBuilder@physx@@QEAA_NAEBIPEBVPxVec3@2@0PEBI@Z 000000018002fb04     ConvexPolygonsBuilder.obj
 0002:00004b34       $chain$9$?computeHullPolygons@ConvexPolygonsBuilder@physx@@QEAA_NAEBIPEBVPxVec3@2@0PEBI@Z 000000018002fb34     ConvexPolygonsBuilder.obj
 0002:00004b64       $unwind$?createPolygonData@ConvexPolygonsBuilder@physx@@AEAA_NXZ 000000018002fb64     ConvexPolygonsBuilder.obj
 0002:00004b74       $chain$7$?createPolygonData@ConvexPolygonsBuilder@physx@@AEAA_NXZ 000000018002fb74     ConvexPolygonsBuilder.obj
 0002:00004ba4       $chain$8$?createPolygonData@ConvexPolygonsBuilder@physx@@AEAA_NXZ 000000018002fba4     ConvexPolygonsBuilder.obj
 0002:00004bb8       $chain$9$?createPolygonData@ConvexPolygonsBuilder@physx@@AEAA_NXZ 000000018002fbb8     ConvexPolygonsBuilder.obj
 0002:00004bc8       $chain$10$?createPolygonData@ConvexPolygonsBuilder@physx@@AEAA_NXZ 000000018002fbc8     ConvexPolygonsBuilder.obj
 0002:00004bf8       $chain$14$?createPolygonData@ConvexPolygonsBuilder@physx@@AEAA_NXZ 000000018002fbf8     ConvexPolygonsBuilder.obj
 0002:00004c18       $chain$15$?createPolygonData@ConvexPolygonsBuilder@physx@@AEAA_NXZ 000000018002fc18     ConvexPolygonsBuilder.obj
 0002:00004c28       $unwind$?createTrianglesFromPolygons@ConvexPolygonsBuilder@physx@@AEAA_NXZ 000000018002fc28     ConvexPolygonsBuilder.obj
 0002:00004c50       $chain$3$?createTrianglesFromPolygons@ConvexPolygonsBuilder@physx@@AEAA_NXZ 000000018002fc50     ConvexPolygonsBuilder.obj
 0002:00004c70       $chain$4$?createTrianglesFromPolygons@ConvexPolygonsBuilder@physx@@AEAA_NXZ 000000018002fc70     ConvexPolygonsBuilder.obj
 0002:00004c80       $unwind$?findLineStrip@@YA_NAEAV?$Array@IV?$ReflectionAllocator@I@shdfnd@physx@@@shdfnd@physx@@AEBV?$Array@VPair@@V?$ReflectionAllocator@VPair@@@shdfnd@physx@@@23@@Z 000000018002fc80     ConvexPolygonsBuilder.obj
 0002:00004c8c       $chain$3$?findLineStrip@@YA_NAEAV?$Array@IV?$ReflectionAllocator@I@shdfnd@physx@@@shdfnd@physx@@AEBV?$Array@VPair@@V?$ReflectionAllocator@VPair@@@shdfnd@physx@@@23@@Z 000000018002fc8c     ConvexPolygonsBuilder.obj
 0002:00004cac       $chain$5$?findLineStrip@@YA_NAEAV?$Array@IV?$ReflectionAllocator@I@shdfnd@physx@@@shdfnd@physx@@AEBV?$Array@VPair@@V?$ReflectionAllocator@VPair@@@shdfnd@physx@@@23@@Z 000000018002fcac     ConvexPolygonsBuilder.obj
 0002:00004cc4       $chain$6$?findLineStrip@@YA_NAEAV?$Array@IV?$ReflectionAllocator@I@shdfnd@physx@@@shdfnd@physx@@AEBV?$Array@VPair@@V?$ReflectionAllocator@VPair@@@shdfnd@physx@@@23@@Z 000000018002fcc4     ConvexPolygonsBuilder.obj
 0002:00004cd4       $chain$7$?findLineStrip@@YA_NAEAV?$Array@IV?$ReflectionAllocator@I@shdfnd@physx@@@shdfnd@physx@@AEBV?$Array@VPair@@V?$ReflectionAllocator@VPair@@@shdfnd@physx@@@23@@Z 000000018002fcd4     ConvexPolygonsBuilder.obj
 0002:00004cfc       $chain$1$?allocate@?$Array@VPair@@V?$ReflectionAllocator@VPair@@@shdfnd@physx@@@shdfnd@physx@@IEAAPEAVPair@@I@Z 000000018002fcfc     ConvexPolygonsBuilder.obj
 0002:00004d14       $chain$3$?allocate@?$Array@VPair@@V?$ReflectionAllocator@VPair@@@shdfnd@physx@@@shdfnd@physx@@IEAAPEAVPair@@I@Z 000000018002fd14     ConvexPolygonsBuilder.obj
 0002:00004d28       $chain$4$?allocate@?$Array@VPair@@V?$ReflectionAllocator@VPair@@@shdfnd@physx@@@shdfnd@physx@@IEAAPEAVPair@@I@Z 000000018002fd28     ConvexPolygonsBuilder.obj
 0002:00004d38       $chain$0$?growAndPushBack@?$Array@VPair@@V?$ReflectionAllocator@VPair@@@shdfnd@physx@@@shdfnd@physx@@IEAAAEAVPair@@AEBV4@@Z 000000018002fd38     ConvexPolygonsBuilder.obj
 0002:00004d4c       $chain$2$?growAndPushBack@?$Array@VPair@@V?$ReflectionAllocator@VPair@@@shdfnd@physx@@@shdfnd@physx@@IEAAAEAVPair@@AEBV4@@Z 000000018002fd4c     ConvexPolygonsBuilder.obj
 0002:00004d60       $chain$1$?growAndPushBack@?$Array@VPair@@V?$ReflectionAllocator@VPair@@@shdfnd@physx@@@shdfnd@physx@@IEAAAEAVPair@@AEBV4@@Z 000000018002fd60     ConvexPolygonsBuilder.obj
 0002:00004d70       $unwind$?TestDuplicateTriangles@@YA_NAEAIPEAU?$TriangleT@I@Gu@physx@@_N@Z 000000018002fd70     ConvexPolygonsBuilder.obj
 0002:00004d8c       $unwind$?computeNewellPlane@@YA_NAEAVPxPlane@physx@@IPEBEPEBVPxVec3@2@@Z 000000018002fd8c     ConvexPolygonsBuilder.obj
 0002:00004d9c       $chain$9$?computeNewellPlane@@YA_NAEAVPxPlane@physx@@IPEBEPEBVPxVec3@2@@Z 000000018002fd9c     ConvexPolygonsBuilder.obj
 0002:00004dd4       $chain$14$?computeNewellPlane@@YA_NAEAVPxPlane@physx@@IPEBEPEBVPxVec3@2@@Z 000000018002fdd4     ConvexPolygonsBuilder.obj
 0002:00004df8       $chain$15$?computeNewellPlane@@YA_NAEAVPxPlane@physx@@IPEBEPEBVPxVec3@2@@Z 000000018002fdf8     ConvexPolygonsBuilder.obj
 0002:00004e08       $chain$16$?computeNewellPlane@@YA_NAEAVPxPlane@physx@@IPEBEPEBVPxVec3@2@@Z 000000018002fe08     ConvexPolygonsBuilder.obj
 0002:00004e30       $chain$17$?computeNewellPlane@@YA_NAEAVPxPlane@physx@@IPEBEPEBVPxVec3@2@@Z 000000018002fe30     ConvexPolygonsBuilder.obj
 0002:00004e40       $unwind$?checkRedundantVertices@@YAXAEAIAEAV?$Array@IV?$ReflectionAllocator@I@shdfnd@physx@@@shdfnd@physx@@AEBVConvexPolygonsBuilder@3@11@Z 000000018002fe40     ConvexPolygonsBuilder.obj
 0002:00004e5c       $unwind$?extractHullPolygons@@YA_NAEAIAEAV?$Array@IV?$ReflectionAllocator@I@shdfnd@physx@@@shdfnd@physx@@AEBVConvexPolygonsBuilder@3@PEAV123@1@Z 000000018002fe5c     ConvexPolygonsBuilder.obj
 0002:00004e78       $unwind$?FloodFill@Local@?7??extractHullPolygons@@YA_NAEAIAEAV?$Array@IV?$ReflectionAllocator@I@shdfnd@physx@@@shdfnd@physx@@AEBVConvexPolygonsBuilder@5@PEAV345@1@Z@SAX1PEBVAdjTriangle@5@IPEA_N@Z 000000018002fe78     ConvexPolygonsBuilder.obj
 0002:00004e88       $chain$0$?FloodFill@Local@?7??extractHullPolygons@@YA_NAEAIAEAV?$Array@IV?$ReflectionAllocator@I@shdfnd@physx@@@shdfnd@physx@@AEBVConvexPolygonsBuilder@5@PEAV345@1@Z@SAX1PEBVAdjTriangle@5@IPEA_N@Z 000000018002fe88     ConvexPolygonsBuilder.obj
 0002:00004e9c       $chain$1$?FloodFill@Local@?7??extractHullPolygons@@YA_NAEAIAEAV?$Array@IV?$ReflectionAllocator@I@shdfnd@physx@@@shdfnd@physx@@AEBVConvexPolygonsBuilder@5@PEAV345@1@Z@SAX1PEBVAdjTriangle@5@IPEA_N@Z 000000018002fe9c     ConvexPolygonsBuilder.obj
 0002:00004eac       $unwind$?CheckFloodFillFace@Local@?7??extractHullPolygons@@YA_NAEAIAEAV?$Array@IV?$ReflectionAllocator@I@shdfnd@physx@@@shdfnd@physx@@AEBVConvexPolygonsBuilder@5@PEAV345@1@Z@SA_NIPEBVAdjTriangle@5@PEBI@Z 000000018002feac     ConvexPolygonsBuilder.obj
 0002:00004ec4       $chain$0$??$?_UUHullTriangleData@physx@@@@YAPEAX_KV?$ReflectionAllocator@UHullTriangleData@physx@@@shdfnd@physx@@PEBDH@Z 000000018002fec4     ConvexPolygonsBuilder.obj
 0002:00004ed8       $chain$1$??$?_UUHullTriangleData@physx@@@@YAPEAX_KV?$ReflectionAllocator@UHullTriangleData@physx@@@shdfnd@physx@@PEBDH@Z 000000018002fed8     ConvexPolygonsBuilder.obj
 0002:00004ee8       $unwind$?createConvexHull@QuickHullConvexHullLib@physx@@UEAA?AW4Enum@PxConvexMeshCookingResult@2@XZ 000000018002fee8     QuickHullConvexHullLib.obj
 0002:00004f00       $unwind$?createEdgeList@QuickHullConvexHullLib@physx@@UEAA_NIPEBEPEAPEAEPEAPEAG2@Z 000000018002ff00     QuickHullConvexHullLib.obj
 0002:00004f24       $unwind$?expandHullOBB@QuickHullConvexHullLib@physx@@IEAA?AW4Enum@PxConvexMeshCookingResult@2@XZ 000000018002ff24     QuickHullConvexHullLib.obj
 0002:00004f30       $chain$4$?expandHullOBB@QuickHullConvexHullLib@physx@@IEAA?AW4Enum@PxConvexMeshCookingResult@2@XZ 000000018002ff30     QuickHullConvexHullLib.obj
 0002:00004f54       $chain$6$?expandHullOBB@QuickHullConvexHullLib@physx@@IEAA?AW4Enum@PxConvexMeshCookingResult@2@XZ 000000018002ff54     QuickHullConvexHullLib.obj
 0002:00004f6c       $chain$7$?expandHullOBB@QuickHullConvexHullLib@physx@@IEAA?AW4Enum@PxConvexMeshCookingResult@2@XZ 000000018002ff6c     QuickHullConvexHullLib.obj
 0002:00004f7c       $chain$8$?expandHullOBB@QuickHullConvexHullLib@physx@@IEAA?AW4Enum@PxConvexMeshCookingResult@2@XZ 000000018002ff7c     QuickHullConvexHullLib.obj
 0002:00004f8c       $unwind$?expandHull@QuickHullConvexHullLib@physx@@IEAA?AW4Enum@PxConvexMeshCookingResult@2@XZ 000000018002ff8c     QuickHullConvexHullLib.obj
 0002:00004fb0       $unwind$?cleanupForSimplex@QuickHullConvexHullLib@physx@@IEAA_NPEAVPxVec3@2@IPEAUQuickHullVertex@local@@1AEAM2@Z 000000018002ffb0     QuickHullConvexHullLib.obj
 0002:00004ff4       $unwind$?fillConvexMeshDescFromQuickHull@QuickHullConvexHullLib@physx@@IEAAXAEAVPxConvexMeshDesc@2@@Z 000000018002fff4     QuickHullConvexHullLib.obj
 0002:0000500c       $unwind$?fillConvexMeshDescFromCroppedHull@QuickHullConvexHullLib@physx@@IEAAXAEAVPxConvexMeshDesc@2@@Z 000000018003000c     QuickHullConvexHullLib.obj
 0002:00005024       $chain$0$??_GConvexHull@physx@@QEAAPEAXI@Z 0000000180030024     QuickHullConvexHullLib.obj
 0002:00005038       $chain$1$??_GConvexHull@physx@@QEAAPEAXI@Z 0000000180030038     QuickHullConvexHullLib.obj
 0002:00005048       $unwind$?mergeAdjacentFace@QuickHullFace@local@@QEAA_NPEAUQuickHullHalfEdge@2@AEAV?$Array@PEAUQuickHullFace@local@@V?$ReflectionAllocator@PEAUQuickHullFace@local@@@shdfnd@physx@@@shdfnd@physx@@@Z 0000000180030048     QuickHullConvexHullLib.obj
 0002:00005060       $chain$4$?mergeAdjacentFace@QuickHullFace@local@@QEAA_NPEAUQuickHullHalfEdge@2@AEAV?$Array@PEAUQuickHullFace@local@@V?$ReflectionAllocator@PEAUQuickHullFace@local@@@shdfnd@physx@@@shdfnd@physx@@@Z 0000000180030060     QuickHullConvexHullLib.obj
 0002:00005084       $chain$5$?mergeAdjacentFace@QuickHullFace@local@@QEAA_NPEAUQuickHullHalfEdge@2@AEAV?$Array@PEAUQuickHullFace@local@@V?$ReflectionAllocator@PEAUQuickHullFace@local@@@shdfnd@physx@@@shdfnd@physx@@@Z 0000000180030084     QuickHullConvexHullLib.obj
 0002:00005084       $chain$7$?mergeAdjacentFace@QuickHullFace@local@@QEAA_NPEAUQuickHullHalfEdge@2@AEAV?$Array@PEAUQuickHullFace@local@@V?$ReflectionAllocator@PEAUQuickHullFace@local@@@shdfnd@physx@@@shdfnd@physx@@@Z 0000000180030084     QuickHullConvexHullLib.obj
 0002:00005094       $chain$6$?mergeAdjacentFace@QuickHullFace@local@@QEAA_NPEAUQuickHullHalfEdge@2@AEAV?$Array@PEAUQuickHullFace@local@@V?$ReflectionAllocator@PEAUQuickHullFace@local@@@shdfnd@physx@@@shdfnd@physx@@@Z 0000000180030094     QuickHullConvexHullLib.obj
 0002:000050b8       $unwind$?connectHalfEdges@QuickHullFace@local@@AEAAPEAU12@PEAUQuickHullHalfEdge@2@0@Z 00000001800300b8     QuickHullConvexHullLib.obj
 0002:000050c0       $chain$5$?connectHalfEdges@QuickHullFace@local@@AEAAPEAU12@PEAUQuickHullHalfEdge@2@0@Z 00000001800300c0     QuickHullConvexHullLib.obj
 0002:000050e8       $chain$6$?connectHalfEdges@QuickHullFace@local@@AEAAPEAU12@PEAUQuickHullHalfEdge@2@0@Z 00000001800300e8     QuickHullConvexHullLib.obj
 0002:0000510c       $chain$7$?connectHalfEdges@QuickHullFace@local@@AEAAPEAU12@PEAUQuickHullHalfEdge@2@0@Z 000000018003010c     QuickHullConvexHullLib.obj
 0002:0000511c       $unwind$?parseInputVertices@QuickHull@local@@QEAAXPEBVPxVec3@physx@@I@Z 000000018003011c     QuickHullConvexHullLib.obj
 0002:00005128       $chain$1$?parseInputVertices@QuickHull@local@@QEAAXPEBVPxVec3@physx@@I@Z 0000000180030128     QuickHullConvexHullLib.obj
 0002:00005140       $chain$2$?parseInputVertices@QuickHull@local@@QEAAXPEBVPxVec3@physx@@I@Z 0000000180030140     QuickHullConvexHullLib.obj
 0002:00005150       $unwind$?buildHull@QuickHull@local@@QEAA?AW4Enum@QuickHullResult@2@XZ 0000000180030150     QuickHullConvexHullLib.obj
 0002:00005164       $unwind$?computeMinMaxVerts@QuickHull@local@@IEAAXXZ 0000000180030164     QuickHullConvexHullLib.obj
 0002:00005170       $unwind$?findSimplex@QuickHull@local@@IEAA_NXZ 0000000180030170     QuickHullConvexHullLib.obj
 0002:00005184       $chain$0$?findSimplex@QuickHull@local@@IEAA_NXZ 0000000180030184     QuickHullConvexHullLib.obj
 0002:00005198       $chain$9$?findSimplex@QuickHull@local@@IEAA_NXZ 0000000180030198     QuickHullConvexHullLib.obj
 0002:000051cc       $chain$12$?findSimplex@QuickHull@local@@IEAA_NXZ 00000001800301cc     QuickHullConvexHullLib.obj
 0002:000051e8       $chain$13$?findSimplex@QuickHull@local@@IEAA_NXZ 00000001800301e8     QuickHullConvexHullLib.obj
 0002:000051e8       $chain$15$?findSimplex@QuickHull@local@@IEAA_NXZ 00000001800301e8     QuickHullConvexHullLib.obj
 0002:00005218       $chain$14$?findSimplex@QuickHull@local@@IEAA_NXZ 0000000180030218     QuickHullConvexHullLib.obj
 0002:00005258       $chain$16$?findSimplex@QuickHull@local@@IEAA_NXZ 0000000180030258     QuickHullConvexHullLib.obj
 0002:00005268       $unwind$?addSimplex@QuickHull@local@@IEAAXPEAUQuickHullVertex@2@_N@Z 0000000180030268     QuickHullConvexHullLib.obj
 0002:00005280       $chain$0$?addSimplex@QuickHull@local@@IEAAXPEAUQuickHullVertex@2@_N@Z 0000000180030280     QuickHullConvexHullLib.obj
 0002:00005294       $chain$2$?addSimplex@QuickHull@local@@IEAAXPEAUQuickHullVertex@2@_N@Z 0000000180030294     QuickHullConvexHullLib.obj
 0002:000052a8       $chain$1$?addSimplex@QuickHull@local@@IEAAXPEAUQuickHullVertex@2@_N@Z 00000001800302a8     QuickHullConvexHullLib.obj
 0002:000052b8       $unwind$?nextPointToAdd@QuickHull@local@@IEAAPEAUQuickHullVertex@2@AEAPEAUQuickHullFace@2@@Z 00000001800302b8     QuickHullConvexHullLib.obj
 0002:000052cc       $unwind$?addPointToHull@QuickHull@local@@IEAA_NPEBUQuickHullVertex@2@AEAUQuickHullFace@2@AEA_N@Z 00000001800302cc     QuickHullConvexHullLib.obj
 0002:000052e0       $chain$1$?addPointToHull@QuickHull@local@@IEAA_NPEBUQuickHullVertex@2@AEAUQuickHullFace@2@AEA_N@Z 00000001800302e0     QuickHullConvexHullLib.obj
 0002:000052f8       $chain$2$?addPointToHull@QuickHull@local@@IEAA_NPEBUQuickHullVertex@2@AEAUQuickHullFace@2@AEA_N@Z 00000001800302f8     QuickHullConvexHullLib.obj
 0002:0000530c       $unwind$?createTriangle@QuickHull@local@@IEAAPEAUQuickHullFace@2@AEBUQuickHullVertex@2@00@Z 000000018003030c     QuickHullConvexHullLib.obj
 0002:00005338       $unwind$?calculateHorizon@QuickHull@local@@IEAAXAEBVPxVec3@physx@@PEAUQuickHullHalfEdge@2@AEAUQuickHullFace@2@AEAV?$Array@PEAUQuickHullHalfEdge@local@@V?$ReflectionAllocator@PEAUQuickHullHalfEdge@local@@@shdfnd@physx@@@shdfnd@4@AEAV?$Array@PEAUQuickHullFace@local@@V?$ReflectionAllocator@PEAUQuickHullFace@local@@@shdfnd@physx@@@84@@Z 0000000180030338     QuickHullConvexHullLib.obj
 0002:00005350       $chain$1$?doAdjacentMerge@QuickHull@local@@IEAA_NAEAUQuickHullFace@2@_NAEA_N@Z 0000000180030350     QuickHullConvexHullLib.obj
 0002:00005368       $chain$2$?doAdjacentMerge@QuickHull@local@@IEAA_NAEAUQuickHullFace@2@_NAEA_N@Z 0000000180030368     QuickHullConvexHullLib.obj
 0002:0000537c       $chain$3$?doAdjacentMerge@QuickHull@local@@IEAA_NAEAUQuickHullFace@2@_NAEA_N@Z 000000018003037c     QuickHullConvexHullLib.obj
 0002:00005390       $chain$4$?doAdjacentMerge@QuickHull@local@@IEAA_NAEAUQuickHullFace@2@_NAEA_N@Z 0000000180030390     QuickHullConvexHullLib.obj
 0002:000053a0       $chain$5$?doAdjacentMerge@QuickHull@local@@IEAA_NAEAUQuickHullFace@2@_NAEA_N@Z 00000001800303a0     QuickHullConvexHullLib.obj
 0002:000053b0       $unwind$?resolveUnclaimedPoints@QuickHull@local@@IEAAXAEBV?$Array@PEAUQuickHullFace@local@@V?$ReflectionAllocator@PEAUQuickHullFace@local@@@shdfnd@physx@@@shdfnd@physx@@@Z 00000001800303b0     QuickHullConvexHullLib.obj
 0002:000053c0       $chain$1$?resolveUnclaimedPoints@QuickHull@local@@IEAAXAEBV?$Array@PEAUQuickHullFace@local@@V?$ReflectionAllocator@PEAUQuickHullFace@local@@@shdfnd@physx@@@shdfnd@physx@@@Z 00000001800303c0     QuickHullConvexHullLib.obj
 0002:000053d8       $chain$2$?resolveUnclaimedPoints@QuickHull@local@@IEAAXAEBV?$Array@PEAUQuickHullFace@local@@V?$ReflectionAllocator@PEAUQuickHullFace@local@@@shdfnd@physx@@@shdfnd@physx@@@Z 00000001800303d8     QuickHullConvexHullLib.obj
 0002:000053e8       $unwind$?postMergeHull@QuickHull@local@@IEAAXXZ 00000001800303e8     QuickHullConvexHullLib.obj
 0002:000053f4       $chain$5$?postMergeHull@QuickHull@local@@IEAAXXZ 00000001800303f4     QuickHullConvexHullLib.obj
 0002:0000541c       $chain$6$?postMergeHull@QuickHull@local@@IEAAXXZ 000000018003041c     QuickHullConvexHullLib.obj
 0002:0000542c       $chain$7$?postMergeHull@QuickHull@local@@IEAAXXZ 000000018003042c     QuickHullConvexHullLib.obj
 0002:00005454       $unwind$?canMergeFaces@QuickHull@local@@IEAA_NAEBUQuickHullHalfEdge@2@@Z 0000000180030454     QuickHullConvexHullLib.obj
 0002:00005498       $unwind$?init@?$MemBlock@UQuickHullHalfEdge@local@@$0A@@local@@QEAAXI@Z 0000000180030498     QuickHullConvexHullLib.obj
 0002:000054a4       $unwind$??1?$MemBlock@UQuickHullFace@local@@$00@local@@QEAA@XZ 00000001800304a4     QuickHullConvexHullLib.obj
 0002:000054a4       $unwind$??1?$MemBlock@UQuickHullHalfEdge@local@@$0A@@local@@QEAA@XZ 00000001800304a4     QuickHullConvexHullLib.obj
 0002:000054b0       $chain$0$??1?$MemBlock@UQuickHullFace@local@@$00@local@@QEAA@XZ 00000001800304b0     QuickHullConvexHullLib.obj
 0002:000054b0       $chain$0$??1?$MemBlock@UQuickHullHalfEdge@local@@$0A@@local@@QEAA@XZ 00000001800304b0     QuickHullConvexHullLib.obj
 0002:000054c4       $chain$1$??1?$MemBlock@UQuickHullFace@local@@$00@local@@QEAA@XZ 00000001800304c4     QuickHullConvexHullLib.obj
 0002:000054c4       $chain$1$??1?$MemBlock@UQuickHullHalfEdge@local@@$0A@@local@@QEAA@XZ 00000001800304c4     QuickHullConvexHullLib.obj
 0002:000054d8       $chain$2$??1?$MemBlock@UQuickHullFace@local@@$00@local@@QEAA@XZ 00000001800304d8     QuickHullConvexHullLib.obj
 0002:000054d8       $chain$2$??1?$MemBlock@UQuickHullHalfEdge@local@@$0A@@local@@QEAA@XZ 00000001800304d8     QuickHullConvexHullLib.obj
 0002:000054e8       $chain$3$??1?$MemBlock@UQuickHullFace@local@@$00@local@@QEAA@XZ 00000001800304e8     QuickHullConvexHullLib.obj
 0002:000054e8       $chain$3$??1?$MemBlock@UQuickHullHalfEdge@local@@$0A@@local@@QEAA@XZ 00000001800304e8     QuickHullConvexHullLib.obj
 0002:000054f8       $unwind$?getFreeItem@?$MemBlock@UQuickHullHalfEdge@local@@$0A@@local@@QEAAPEAUQuickHullHalfEdge@2@XZ 00000001800304f8     QuickHullConvexHullLib.obj
 0002:00005504       $chain$1$?allocate@?$Array@PEAUQuickHullHalfEdge@local@@V?$ReflectionAllocator@PEAUQuickHullHalfEdge@local@@@shdfnd@physx@@@shdfnd@physx@@IEAAPEAPEAUQuickHullHalfEdge@local@@I@Z 0000000180030504     QuickHullConvexHullLib.obj
 0002:0000551c       $chain$3$?allocate@?$Array@PEAUQuickHullHalfEdge@local@@V?$ReflectionAllocator@PEAUQuickHullHalfEdge@local@@@shdfnd@physx@@@shdfnd@physx@@IEAAPEAPEAUQuickHullHalfEdge@local@@I@Z 000000018003051c     QuickHullConvexHullLib.obj
 0002:00005530       $chain$4$?allocate@?$Array@PEAUQuickHullHalfEdge@local@@V?$ReflectionAllocator@PEAUQuickHullHalfEdge@local@@@shdfnd@physx@@@shdfnd@physx@@IEAAPEAPEAUQuickHullHalfEdge@local@@I@Z 0000000180030530     QuickHullConvexHullLib.obj
 0002:00005540       $chain$0$?growAndPushBack@?$Array@PEAUQuickHullHalfEdge@local@@V?$ReflectionAllocator@PEAUQuickHullHalfEdge@local@@@shdfnd@physx@@@shdfnd@physx@@IEAAAEAPEAUQuickHullHalfEdge@local@@AEBQEAU45@@Z 0000000180030540     QuickHullConvexHullLib.obj
 0002:00005554       $chain$2$?growAndPushBack@?$Array@PEAUQuickHullHalfEdge@local@@V?$ReflectionAllocator@PEAUQuickHullHalfEdge@local@@@shdfnd@physx@@@shdfnd@physx@@IEAAAEAPEAUQuickHullHalfEdge@local@@AEBQEAU45@@Z 0000000180030554     QuickHullConvexHullLib.obj
 0002:00005568       $chain$1$?growAndPushBack@?$Array@PEAUQuickHullHalfEdge@local@@V?$ReflectionAllocator@PEAUQuickHullHalfEdge@local@@@shdfnd@physx@@@shdfnd@physx@@IEAAAEAPEAUQuickHullHalfEdge@local@@AEBQEAU45@@Z 0000000180030568     QuickHullConvexHullLib.obj
 0002:00005578       $chain$0$?recreate@?$Array@PEAUQuickHullHalfEdge@local@@V?$ReflectionAllocator@PEAUQuickHullHalfEdge@local@@@shdfnd@physx@@@shdfnd@physx@@IEAAXI@Z 0000000180030578     QuickHullConvexHullLib.obj
 0002:0000558c       $chain$1$?recreate@?$Array@PEAUQuickHullHalfEdge@local@@V?$ReflectionAllocator@PEAUQuickHullHalfEdge@local@@@shdfnd@physx@@@shdfnd@physx@@IEAAXI@Z 000000018003058c     QuickHullConvexHullLib.obj
 0002:0000559c       $unwind$?init@?$MemBlock@UQuickHullFace@local@@$00@local@@QEAAXI@Z 000000018003059c     QuickHullConvexHullLib.obj
 0002:000055ac       $unwind$?getFreeItem@?$MemBlock@UQuickHullFace@local@@$00@local@@QEAAPEAUQuickHullFace@2@XZ 00000001800305ac     QuickHullConvexHullLib.obj
 0002:000055bc       $chain$1$?allocate@?$Array@PEAUQuickHullFace@local@@V?$ReflectionAllocator@PEAUQuickHullFace@local@@@shdfnd@physx@@@shdfnd@physx@@IEAAPEAPEAUQuickHullFace@local@@I@Z 00000001800305bc     QuickHullConvexHullLib.obj
 0002:000055d4       $chain$3$?allocate@?$Array@PEAUQuickHullFace@local@@V?$ReflectionAllocator@PEAUQuickHullFace@local@@@shdfnd@physx@@@shdfnd@physx@@IEAAPEAPEAUQuickHullFace@local@@I@Z 00000001800305d4     QuickHullConvexHullLib.obj
 0002:000055e8       $chain$4$?allocate@?$Array@PEAUQuickHullFace@local@@V?$ReflectionAllocator@PEAUQuickHullFace@local@@@shdfnd@physx@@@shdfnd@physx@@IEAAPEAPEAUQuickHullFace@local@@I@Z 00000001800305e8     QuickHullConvexHullLib.obj
 0002:000055f8       $chain$0$?growAndPushBack@?$Array@PEAUQuickHullFace@local@@V?$ReflectionAllocator@PEAUQuickHullFace@local@@@shdfnd@physx@@@shdfnd@physx@@IEAAAEAPEAUQuickHullFace@local@@AEBQEAU45@@Z 00000001800305f8     QuickHullConvexHullLib.obj
 0002:0000560c       $chain$2$?growAndPushBack@?$Array@PEAUQuickHullFace@local@@V?$ReflectionAllocator@PEAUQuickHullFace@local@@@shdfnd@physx@@@shdfnd@physx@@IEAAAEAPEAUQuickHullFace@local@@AEBQEAU45@@Z 000000018003060c     QuickHullConvexHullLib.obj
 0002:00005620       $chain$1$?growAndPushBack@?$Array@PEAUQuickHullFace@local@@V?$ReflectionAllocator@PEAUQuickHullFace@local@@@shdfnd@physx@@@shdfnd@physx@@IEAAAEAPEAUQuickHullFace@local@@AEBQEAU45@@Z 0000000180030620     QuickHullConvexHullLib.obj
 0002:00005630       $chain$0$?recreate@?$Array@PEAUQuickHullFace@local@@V?$ReflectionAllocator@PEAUQuickHullFace@local@@@shdfnd@physx@@@shdfnd@physx@@IEAAXI@Z 0000000180030630     QuickHullConvexHullLib.obj
 0002:00005644       $chain$1$?recreate@?$Array@PEAUQuickHullFace@local@@V?$ReflectionAllocator@PEAUQuickHullFace@local@@@shdfnd@physx@@@shdfnd@physx@@IEAAXI@Z 0000000180030644     QuickHullConvexHullLib.obj
 0002:00005654       $chain$1$?allocate@?$Array@PEAUQuickHullVertex@local@@V?$ReflectionAllocator@PEAUQuickHullVertex@local@@@shdfnd@physx@@@shdfnd@physx@@IEAAPEAPEAUQuickHullVertex@local@@I@Z 0000000180030654     QuickHullConvexHullLib.obj
 0002:0000566c       $chain$3$?allocate@?$Array@PEAUQuickHullVertex@local@@V?$ReflectionAllocator@PEAUQuickHullVertex@local@@@shdfnd@physx@@@shdfnd@physx@@IEAAPEAPEAUQuickHullVertex@local@@I@Z 000000018003066c     QuickHullConvexHullLib.obj
 0002:00005680       $chain$4$?allocate@?$Array@PEAUQuickHullVertex@local@@V?$ReflectionAllocator@PEAUQuickHullVertex@local@@@shdfnd@physx@@@shdfnd@physx@@IEAAPEAPEAUQuickHullVertex@local@@I@Z 0000000180030680     QuickHullConvexHullLib.obj
 0002:00005690       $chain$0$?growAndPushBack@?$Array@PEAUQuickHullVertex@local@@V?$ReflectionAllocator@PEAUQuickHullVertex@local@@@shdfnd@physx@@@shdfnd@physx@@IEAAAEAPEAUQuickHullVertex@local@@AEBQEAU45@@Z 0000000180030690     QuickHullConvexHullLib.obj
 0002:000056a4       $chain$2$?growAndPushBack@?$Array@PEAUQuickHullVertex@local@@V?$ReflectionAllocator@PEAUQuickHullVertex@local@@@shdfnd@physx@@@shdfnd@physx@@IEAAAEAPEAUQuickHullVertex@local@@AEBQEAU45@@Z 00000001800306a4     QuickHullConvexHullLib.obj
 0002:000056b8       $chain$1$?growAndPushBack@?$Array@PEAUQuickHullVertex@local@@V?$ReflectionAllocator@PEAUQuickHullVertex@local@@@shdfnd@physx@@@shdfnd@physx@@IEAAAEAPEAUQuickHullVertex@local@@AEBQEAU45@@Z 00000001800306b8     QuickHullConvexHullLib.obj
 0002:000056c8       $chain$0$?recreate@?$Array@PEAUQuickHullVertex@local@@V?$ReflectionAllocator@PEAUQuickHullVertex@local@@@shdfnd@physx@@@shdfnd@physx@@IEAAXI@Z 00000001800306c8     QuickHullConvexHullLib.obj
 0002:000056dc       $chain$1$?recreate@?$Array@PEAUQuickHullVertex@local@@V?$ReflectionAllocator@PEAUQuickHullVertex@local@@@shdfnd@physx@@@shdfnd@physx@@IEAAXI@Z 00000001800306dc     QuickHullConvexHullLib.obj
 0002:000056ec       $chain$1$?allocate@?$Array@UExpandPoint@local@@V?$ReflectionAllocator@UExpandPoint@local@@@shdfnd@physx@@@shdfnd@physx@@IEAAPEAUExpandPoint@local@@I@Z 00000001800306ec     QuickHullConvexHullLib.obj
 0002:00005704       $chain$3$?allocate@?$Array@UExpandPoint@local@@V?$ReflectionAllocator@UExpandPoint@local@@@shdfnd@physx@@@shdfnd@physx@@IEAAPEAUExpandPoint@local@@I@Z 0000000180030704     QuickHullConvexHullLib.obj
 0002:00005718       $chain$4$?allocate@?$Array@UExpandPoint@local@@V?$ReflectionAllocator@UExpandPoint@local@@@shdfnd@physx@@@shdfnd@physx@@IEAAPEAUExpandPoint@local@@I@Z 0000000180030718     QuickHullConvexHullLib.obj
 0002:00005728       $chain$0$?growAndPushBack@?$Array@UExpandPoint@local@@V?$ReflectionAllocator@UExpandPoint@local@@@shdfnd@physx@@@shdfnd@physx@@IEAAAEAUExpandPoint@local@@AEBU45@@Z 0000000180030728     QuickHullConvexHullLib.obj
 0002:0000573c       $chain$2$?growAndPushBack@?$Array@UExpandPoint@local@@V?$ReflectionAllocator@UExpandPoint@local@@@shdfnd@physx@@@shdfnd@physx@@IEAAAEAUExpandPoint@local@@AEBU45@@Z 000000018003073c     QuickHullConvexHullLib.obj
 0002:00005750       $chain$1$?growAndPushBack@?$Array@UExpandPoint@local@@V?$ReflectionAllocator@UExpandPoint@local@@@shdfnd@physx@@@shdfnd@physx@@IEAAAEAUExpandPoint@local@@AEBU45@@Z 0000000180030750     QuickHullConvexHullLib.obj
 0002:00005760       $unwind$?computeVolumeIntegralsEberly@physx@@YA_NAEBVPxConvexMeshDesc@1@MAEAUPxIntegrals@1@AEBVPxVec3@1@@Z 0000000180030760     VolumeIntegration.obj
 0002:00005760       $unwind$?computeVolumeIntegralsEberlySIMD@physx@@YA_NAEBVPxConvexMeshDesc@1@MAEAUPxIntegrals@1@AEBVPxVec3@1@@Z 0000000180030760     VolumeIntegration.obj
 0002:00005768       $unwind$?computeVolumeIntegralsSIMD@VolumeIntegratorEberly@?A0xd740b572@physx@@QEAA_NAEAUPxIntegrals@3@AEBVPxVec3@3@@Z 0000000180030768     VolumeIntegration.obj
 0002:000057a0       $chain$1$?computeVolumeIntegralsSIMD@VolumeIntegratorEberly@?A0xd740b572@physx@@QEAA_NAEAUPxIntegrals@3@AEBVPxVec3@3@@Z 00000001800307a0     VolumeIntegration.obj
 0002:000057b8       $chain$2$?computeVolumeIntegralsSIMD@VolumeIntegratorEberly@?A0xd740b572@physx@@QEAA_NAEAUPxIntegrals@3@AEBVPxVec3@3@@Z 00000001800307b8     VolumeIntegration.obj
 0002:000057c8       $unwind$?computeVolumeIntegrals@VolumeIntegratorEberly@?A0xd740b572@physx@@QEAA_NAEAUPxIntegrals@3@AEBVPxVec3@3@@Z 00000001800307c8     VolumeIntegration.obj
 0002:00005800       $chain$3$?computeVolumeIntegrals@VolumeIntegratorEberly@?A0xd740b572@physx@@QEAA_NAEAUPxIntegrals@3@AEBVPxVec3@3@@Z 0000000180030800     VolumeIntegration.obj
 0002:00005820       $chain$4$?computeVolumeIntegrals@VolumeIntegratorEberly@?A0xd740b572@physx@@QEAA_NAEAUPxIntegrals@3@AEBVPxVec3@3@@Z 0000000180030820     VolumeIntegration.obj
 0002:00005830       $chain$1$?cookingDelayHook@@YAP6A_JXZIPEAUDelayLoadInfo@@@Z 0000000180030830     WindowsCookingDelayLoadHook.obj
 0002:00005848       $chain$3$?cookingDelayHook@@YAP6A_JXZIPEAUDelayLoadInfo@@@Z 0000000180030848     WindowsCookingDelayLoadHook.obj
 0002:00005848       $chain$5$?cookingDelayHook@@YAP6A_JXZIPEAUDelayLoadInfo@@@Z 0000000180030848     WindowsCookingDelayLoadHook.obj
 0002:00005860       $chain$6$?cookingDelayHook@@YAP6A_JXZIPEAUDelayLoadInfo@@@Z 0000000180030860     WindowsCookingDelayLoadHook.obj
 0002:00005870       xdata                      0000000180030870     PhysXCommon_64:PhysXCommon_64.dll
 0002:00005878       xdata                      0000000180030878     PhysXFoundation_64:PhysXFoundation_64.dll
 0002:00005880       $unwind$?DloadProtectSection@@YAXPEAX_KKPEAK@Z 0000000180030880     Delayimp:delayhlp.obj
 0002:00005898       $unwind$__delayLoadHelper2 0000000180030898     Delayimp:delayhlp.obj
 0002:000058b4       $unwind$??$GuardedWrite@V<lambda_1>@?1??__delayLoadHelper2@@YAP6A_JXZPEBUImgDelayDescr@@PEAP6A_JXZ@Z@@@YAXPEAX_KV<lambda_1>@?1??__delayLoadHelper2@@YAP6A_JXZPEBUImgDelayDescr@@PEAP6A_JXZ@Z@@Z 00000001800308b4     Delayimp:delayhlp.obj
 0002:000058c8       $xdatasym                  00000001800308c8     MSVCRT:chkstk.obj
 0002:000058d0       $unwind$?dllmain_crt_process_attach@@YAHQEAUHINSTANCE__@@QEAX@Z 00000001800308d0     MSVCRT:dll_dllmain.obj
 0002:0000590c       $unwind$?fin$0@?0??dllmain_crt_process_attach@@YAHQEAUHINSTANCE__@@QEAX@Z@4HA 000000018003090c     MSVCRT:dll_dllmain.obj
 0002:0000590c       $unwind$?fin$0@?0??dllmain_crt_process_detach@@YAH_N@Z@4HA 000000018003090c     MSVCRT:dll_dllmain.obj
 0002:0000590c       $unwind$?fin$1@?0??dllmain_crt_process_detach@@YAH_N@Z@4HA 000000018003090c     MSVCRT:dll_dllmain.obj
 0002:00005914       $unwind$?dllmain_crt_process_detach@@YAH_N@Z 0000000180030914     MSVCRT:dll_dllmain.obj
 0002:00005968       $unwind$?dllmain_dispatch@@YAHQEAUHINSTANCE__@@KQEAX@Z 0000000180030968     MSVCRT:dll_dllmain.obj
 0002:00005990       $unwind$?filt$0@?0??dllmain_dispatch@@YAHQEAUHINSTANCE__@@KQEAX@Z@4HA 0000000180030990     MSVCRT:dll_dllmain.obj
 0002:00005998       $unwind$__isa_available_init 0000000180030998     MSVCRT:cpu_disp.obj
 0002:000059b0       $xdatasym                  00000001800309b0     MSVCRT:svml_ssinf4_sse2.obj
 0002:000059e8       $xdatasym                  00000001800309e8     MSVCRT:svml_ssinf4_sse4.obj
 0002:00005a1c       $unwind$__security_init_cookie 0000000180030a1c     MSVCRT:gs_support.obj
 0002:00005a28       $unwind$__scrt_is_nonwritable_in_current_image 0000000180030a28     MSVCRT:utility.obj
 0002:00005a48       $unwind$__scrt_is_nonwritable_in_current_image$filt$0 0000000180030a48     MSVCRT:utility.obj
 0002:00005a50       $unwind$__scrt_fastfail    0000000180030a50     MSVCRT:utility_desktop.obj
 0002:00005a60       $xdatasym                  0000000180030a60     MSVCRT:guard_dispatch.obj
 0002:00005a68       $xdatasym                  0000000180030a68     MSVCRT:guard_xfg_dispatch.obj
 0002:00005a70       $xdatasym                  0000000180030a70     MSVCRT:svml_s_sin_cout.obj
 0002:00006860       .edata                     0000000180031860     PhysXCooking_64.exp
 0002:00006888       rgpv                       0000000180031888     PhysXCooking_64.exp
 0002:00006a70       rgszName                   0000000180031a70     PhysXCooking_64.exp
 0002:00006c58       rgwOrd                     0000000180031c58     PhysXCooking_64.exp
 0002:00006d4c       szName                     0000000180031d4c     PhysXCooking_64.exp
 0002:00006d60       $N00001                    0000000180031d60     PhysXCooking_64.exp
 0002:00006d8f       $N00002                    0000000180031d8f     PhysXCooking_64.exp
 0002:00006db6       $N00003                    0000000180031db6     PhysXCooking_64.exp
 0002:00006df1       $N00004                    0000000180031df1     PhysXCooking_64.exp
 0002:00006e18       $N00005                    0000000180031e18     PhysXCooking_64.exp
 0002:00006e44       $N00006                    0000000180031e44     PhysXCooking_64.exp
 0002:00006e65       $N00007                    0000000180031e65     PhysXCooking_64.exp
 0002:00006e9a       $N00008                    0000000180031e9a     PhysXCooking_64.exp
 0002:00006eb3       $N00009                    0000000180031eb3     PhysXCooking_64.exp
 0002:00006ed3       $N00010                    0000000180031ed3     PhysXCooking_64.exp
 0002:00006efc       $N00011                    0000000180031efc     PhysXCooking_64.exp
 0002:00006f23       $N00012                    0000000180031f23     PhysXCooking_64.exp
 0002:00006f52       $N00013                    0000000180031f52     PhysXCooking_64.exp
 0002:00006f7f       $N00014                    0000000180031f7f     PhysXCooking_64.exp
 0002:00006fb0       $N00015                    0000000180031fb0     PhysXCooking_64.exp
 0002:00006fd5       $N00016                    0000000180031fd5     PhysXCooking_64.exp
 0002:00007000       $N00017                    0000000180032000     PhysXCooking_64.exp
 0002:00007026       $N00018                    0000000180032026     PhysXCooking_64.exp
 0002:00007045       $N00019                    0000000180032045     PhysXCooking_64.exp
 0002:0000707b       $N00020                    000000018003207b     PhysXCooking_64.exp
 0002:000070a5       $N00021                    00000001800320a5     PhysXCooking_64.exp
 0002:000070cc       $N00022                    00000001800320cc     PhysXCooking_64.exp
 0002:000070f5       $N00023                    00000001800320f5     PhysXCooking_64.exp
 0002:0000710e       $N00024                    000000018003210e     PhysXCooking_64.exp
 0002:00007133       $N00025                    0000000180032133     PhysXCooking_64.exp
 0002:00007152       $N00026                    0000000180032152     PhysXCooking_64.exp
 0002:00007171       $N00027                    0000000180032171     PhysXCooking_64.exp
 0002:00007191       $N00028                    0000000180032191     PhysXCooking_64.exp
 0002:000071c7       $N00029                    00000001800321c7     PhysXCooking_64.exp
 0002:000071ff       $N00030                    00000001800321ff     PhysXCooking_64.exp
 0002:00007233       $N00031                    0000000180032233     PhysXCooking_64.exp
 0002:00007265       $N00032                    0000000180032265     PhysXCooking_64.exp
 0002:00007292       $N00033                    0000000180032292     PhysXCooking_64.exp
 0002:000072ba       $N00034                    00000001800322ba     PhysXCooking_64.exp
 0002:000072eb       $N00035                    00000001800322eb     PhysXCooking_64.exp
 0002:0000731a       $N00036                    000000018003231a     PhysXCooking_64.exp
 0002:0000734a       $N00037                    000000018003234a     PhysXCooking_64.exp
 0002:00007378       $N00038                    0000000180032378     PhysXCooking_64.exp
 0002:000073a9       $N00039                    00000001800323a9     PhysXCooking_64.exp
 0002:000073df       $N00040                    00000001800323df     PhysXCooking_64.exp
 0002:00007413       $N00041                    0000000180032413     PhysXCooking_64.exp
 0002:00007445       $N00042                    0000000180032445     PhysXCooking_64.exp
 0002:00007477       $N00043                    0000000180032477     PhysXCooking_64.exp
 0002:000074a3       $N00044                    00000001800324a3     PhysXCooking_64.exp
 0002:000074bf       $N00045                    00000001800324bf     PhysXCooking_64.exp
 0002:000074e9       $N00046                    00000001800324e9     PhysXCooking_64.exp
 0002:0000750d       $N00047                    000000018003250d     PhysXCooking_64.exp
 0002:0000753f       $N00048                    000000018003253f     PhysXCooking_64.exp
 0002:00007566       $N00049                    0000000180032566     PhysXCooking_64.exp
 0002:00007594       $N00050                    0000000180032594     PhysXCooking_64.exp
 0002:000075bf       $N00051                    00000001800325bf     PhysXCooking_64.exp
 0002:000075ec       $N00052                    00000001800325ec     PhysXCooking_64.exp
 0002:00007615       $N00053                    0000000180032615     PhysXCooking_64.exp
 0002:00007644       $N00054                    0000000180032644     PhysXCooking_64.exp
 0002:0000766d       $N00055                    000000018003266d     PhysXCooking_64.exp
 0002:00007696       $N00056                    0000000180032696     PhysXCooking_64.exp
 0002:000076c4       $N00057                    00000001800326c4     PhysXCooking_64.exp
 0002:000076ec       $N00058                    00000001800326ec     PhysXCooking_64.exp
 0002:00007727       $N00059                    0000000180032727     PhysXCooking_64.exp
 0002:00007751       $N00060                    0000000180032751     PhysXCooking_64.exp
 0002:00007785       $N00061                    0000000180032785     PhysXCooking_64.exp
 0002:000077bb       $N00062                    00000001800327bb     PhysXCooking_64.exp
 0002:000077f7       $N00063                    00000001800327f7     PhysXCooking_64.exp
 0002:0000783f       $N00064                    000000018003283f     PhysXCooking_64.exp
 0002:0000788f       $N00065                    000000018003288f     PhysXCooking_64.exp
 0002:000078c3       $N00066                    00000001800328c3     PhysXCooking_64.exp
 0002:000078f8       $N00067                    00000001800328f8     PhysXCooking_64.exp
 0002:0000792e       $N00068                    000000018003292e     PhysXCooking_64.exp
 0002:00007955       $N00069                    0000000180032955     PhysXCooking_64.exp
 0002:0000799d       $N00070                    000000018003299d     PhysXCooking_64.exp
 0002:000079e3       $N00071                    00000001800329e3     PhysXCooking_64.exp
 0002:00007a3b       $N00072                    0000000180032a3b     PhysXCooking_64.exp
 0002:00007a82       $N00073                    0000000180032a82     PhysXCooking_64.exp
 0002:00007aad       $N00074                    0000000180032aad     PhysXCooking_64.exp
 0002:00007add       $N00075                    0000000180032add     PhysXCooking_64.exp
 0002:00007b2d       $N00076                    0000000180032b2d     PhysXCooking_64.exp
 0002:00007bdc       $N00077                    0000000180032bdc     PhysXCooking_64.exp
 0002:00007c3a       $N00078                    0000000180032c3a     PhysXCooking_64.exp
 0002:00007c66       $N00079                    0000000180032c66     PhysXCooking_64.exp
 0002:00007c92       $N00080                    0000000180032c92     PhysXCooking_64.exp
 0002:00007cc7       $N00081                    0000000180032cc7     PhysXCooking_64.exp
 0002:00007cf0       $N00082                    0000000180032cf0     PhysXCooking_64.exp
 0002:00007d2c       $N00083                    0000000180032d2c     PhysXCooking_64.exp
 0002:00007d58       $N00084                    0000000180032d58     PhysXCooking_64.exp
 0002:00007d8b       $N00085                    0000000180032d8b     PhysXCooking_64.exp
 0002:00007dd8       $N00086                    0000000180032dd8     PhysXCooking_64.exp
 0002:00007e0b       $N00087                    0000000180032e0b     PhysXCooking_64.exp
 0002:00007e45       $N00088                    0000000180032e45     PhysXCooking_64.exp
 0002:00007e7f       $N00089                    0000000180032e7f     PhysXCooking_64.exp
 0002:00007ebb       $N00090                    0000000180032ebb     PhysXCooking_64.exp
 0002:00007eff       $N00091                    0000000180032eff     PhysXCooking_64.exp
 0002:00007f2e       $N00092                    0000000180032f2e     PhysXCooking_64.exp
 0002:00007fa8       $N00093                    0000000180032fa8     PhysXCooking_64.exp
 0002:00008005       $N00094                    0000000180033005     PhysXCooking_64.exp
 0002:00008031       $N00095                    0000000180033031     PhysXCooking_64.exp
 0002:00008065       $N00096                    0000000180033065     PhysXCooking_64.exp
 0002:0000809e       $N00097                    000000018003309e     PhysXCooking_64.exp
 0002:000080db       $N00098                    00000001800330db     PhysXCooking_64.exp
 0002:00008111       $N00099                    0000000180033111     PhysXCooking_64.exp
 0002:0000813e       $N00100                    000000018003313e     PhysXCooking_64.exp
 0002:0000816b       $N00101                    000000018003316b     PhysXCooking_64.exp
 0002:00008196       $N00102                    0000000180033196     PhysXCooking_64.exp
 0002:000081c2       $N00103                    00000001800331c2     PhysXCooking_64.exp
 0002:000081ef       $N00104                    00000001800331ef     PhysXCooking_64.exp
 0002:0000820f       $N00105                    000000018003320f     PhysXCooking_64.exp
 0002:0000824b       $N00106                    000000018003324b     PhysXCooking_64.exp
 0002:0000827c       $N00107                    000000018003327c     PhysXCooking_64.exp
 0002:000082ae       $N00108                    00000001800332ae     PhysXCooking_64.exp
 0002:000082f0       $N00109                    00000001800332f0     PhysXCooking_64.exp
 0002:0000831d       $N00110                    000000018003331d     PhysXCooking_64.exp
 0002:00008341       $N00111                    0000000180033341     PhysXCooking_64.exp
 0002:00008371       $N00112                    0000000180033371     PhysXCooking_64.exp
 0002:000083a4       $N00113                    00000001800333a4     PhysXCooking_64.exp
 0002:000083c9       $N00114                    00000001800333c9     PhysXCooking_64.exp
 0002:000083f7       $N00115                    00000001800333f7     PhysXCooking_64.exp
 0002:0000841f       $N00116                    000000018003341f     PhysXCooking_64.exp
 0002:0000843f       $N00117                    000000018003343f     PhysXCooking_64.exp
 0002:00008484       $N00118                    0000000180033484     PhysXCooking_64.exp
 0002:000084c1       $N00119                    00000001800334c1     PhysXCooking_64.exp
 0002:000084fe       $N00120                    00000001800334fe     PhysXCooking_64.exp
 0002:00008531       $N00121                    0000000180033531     PhysXCooking_64.exp
 0002:00008541       $N00122                    0000000180033541     PhysXCooking_64.exp
 0002:00008780       .idata$6                   0000000180033780     kernel32:KERNEL32.dll
 0002:00008808       .idata$6                   0000000180033808     vcruntime:VCRUNTIME140.dll
 0002:000088e8       .idata$6                   00000001800338e8     ucrt:api-ms-win-crt-string-l1-1-0.dll
 0002:0000890a       .idata$6                   000000018003390a     ucrt:api-ms-win-crt-math-l1-1-0.dll
 0002:0000892a       .idata$6                   000000018003392a     ucrt:api-ms-win-crt-heap-l1-1-0.dll
 0002:0000894a       .idata$6                   000000018003394a     ucrt:api-ms-win-crt-runtime-l1-1-0.dll
 0003:00000000       ?MAXDOT_MINANG@local@@3MB  0000000180034000     ConvexHullUtils.obj
 0003:00000004       ?MAXDOT_MINANG@local@@3MB  0000000180034004     QuickHullConvexHullLib.obj
 0003:00000820       ?maxV3Error@_VecMathTests@aos@shdfnd@physx@@3T__m128@@B 0000000180034820     Cooking.obj
 0003:00000830       ?minFError@_VecMathTests@aos@shdfnd@physx@@3T__m128@@B 0000000180034830     Cooking.obj
 0003:00000840       ?maxV4Error@_VecMathTests@aos@shdfnd@physx@@3T__m128@@B 0000000180034840     Cooking.obj
 0003:00000850       ?minV4Error@_VecMathTests@aos@shdfnd@physx@@3T__m128@@B 0000000180034850     Cooking.obj
 0003:00000860       ?minV3Error@_VecMathTests@aos@shdfnd@physx@@3T__m128@@B 0000000180034860     Cooking.obj
 0003:00000870       ?maxFError@_VecMathTests@aos@shdfnd@physx@@3T__m128@@B 0000000180034870     Cooking.obj
 0003:00000880       ?maxV3Error@_VecMathTests@aos@shdfnd@physx@@3T__m128@@B 0000000180034880     BVHStructureBuilder.obj
 0003:00000890       ?minFError@_VecMathTests@aos@shdfnd@physx@@3T__m128@@B 0000000180034890     BVHStructureBuilder.obj
 0003:000008a0       ?maxV4Error@_VecMathTests@aos@shdfnd@physx@@3T__m128@@B 00000001800348a0     BVHStructureBuilder.obj
 0003:000008b0       ?minV4Error@_VecMathTests@aos@shdfnd@physx@@3T__m128@@B 00000001800348b0     BVHStructureBuilder.obj
 0003:000008c0       ?minV3Error@_VecMathTests@aos@shdfnd@physx@@3T__m128@@B 00000001800348c0     BVHStructureBuilder.obj
 0003:000008d0       ?maxFError@_VecMathTests@aos@shdfnd@physx@@3T__m128@@B 00000001800348d0     BVHStructureBuilder.obj
 0003:000008e0       ?maxV3Error@_VecMathTests@aos@shdfnd@physx@@3T__m128@@B 00000001800348e0     RTreeCooking.obj
 0003:000008f0       ?minFError@_VecMathTests@aos@shdfnd@physx@@3T__m128@@B 00000001800348f0     RTreeCooking.obj
 0003:00000900       ?maxV4Error@_VecMathTests@aos@shdfnd@physx@@3T__m128@@B 0000000180034900     RTreeCooking.obj
 0003:00000910       ?minV4Error@_VecMathTests@aos@shdfnd@physx@@3T__m128@@B 0000000180034910     RTreeCooking.obj
 0003:00000920       ?minV3Error@_VecMathTests@aos@shdfnd@physx@@3T__m128@@B 0000000180034920     RTreeCooking.obj
 0003:00000930       ?maxFError@_VecMathTests@aos@shdfnd@physx@@3T__m128@@B 0000000180034930     RTreeCooking.obj
 0003:00000940       ?maxV3Error@_VecMathTests@aos@shdfnd@physx@@3T__m128@@B 0000000180034940     MeshBuilder.obj
 0003:00000950       ?minFError@_VecMathTests@aos@shdfnd@physx@@3T__m128@@B 0000000180034950     MeshBuilder.obj
 0003:00000960       ?maxV4Error@_VecMathTests@aos@shdfnd@physx@@3T__m128@@B 0000000180034960     MeshBuilder.obj
 0003:00000970       ?minV4Error@_VecMathTests@aos@shdfnd@physx@@3T__m128@@B 0000000180034970     MeshBuilder.obj
 0003:00000980       ?minV3Error@_VecMathTests@aos@shdfnd@physx@@3T__m128@@B 0000000180034980     MeshBuilder.obj
 0003:00000990       ?maxFError@_VecMathTests@aos@shdfnd@physx@@3T__m128@@B 0000000180034990     MeshBuilder.obj
 0003:000009a0       ?maxV3Error@_VecMathTests@aos@shdfnd@physx@@3T__m128@@B 00000001800349a0     TriangleMeshBuilder.obj
 0003:000009b0       ?minFError@_VecMathTests@aos@shdfnd@physx@@3T__m128@@B 00000001800349b0     TriangleMeshBuilder.obj
 0003:000009c0       ?maxV4Error@_VecMathTests@aos@shdfnd@physx@@3T__m128@@B 00000001800349c0     TriangleMeshBuilder.obj
 0003:000009d0       ?minV4Error@_VecMathTests@aos@shdfnd@physx@@3T__m128@@B 00000001800349d0     TriangleMeshBuilder.obj
 0003:000009e0       ?minV3Error@_VecMathTests@aos@shdfnd@physx@@3T__m128@@B 00000001800349e0     TriangleMeshBuilder.obj
 0003:000009f0       ?maxFError@_VecMathTests@aos@shdfnd@physx@@3T__m128@@B 00000001800349f0     TriangleMeshBuilder.obj
 0003:00000a00       ?maxV3Error@_VecMathTests@aos@shdfnd@physx@@3T__m128@@B 0000000180034a00     BigConvexDataBuilder.obj
 0003:00000a10       ?minFError@_VecMathTests@aos@shdfnd@physx@@3T__m128@@B 0000000180034a10     BigConvexDataBuilder.obj
 0003:00000a20       ?maxV4Error@_VecMathTests@aos@shdfnd@physx@@3T__m128@@B 0000000180034a20     BigConvexDataBuilder.obj
 0003:00000a30       ?minV4Error@_VecMathTests@aos@shdfnd@physx@@3T__m128@@B 0000000180034a30     BigConvexDataBuilder.obj
 0003:00000a40       ?minV3Error@_VecMathTests@aos@shdfnd@physx@@3T__m128@@B 0000000180034a40     BigConvexDataBuilder.obj
 0003:00000a50       ?maxFError@_VecMathTests@aos@shdfnd@physx@@3T__m128@@B 0000000180034a50     BigConvexDataBuilder.obj
 0003:00000a60       ?maxV3Error@_VecMathTests@aos@shdfnd@physx@@3T__m128@@B 0000000180034a60     ConvexHullBuilder.obj
 0003:00000a70       ?minFError@_VecMathTests@aos@shdfnd@physx@@3T__m128@@B 0000000180034a70     ConvexHullBuilder.obj
 0003:00000a80       ?maxV4Error@_VecMathTests@aos@shdfnd@physx@@3T__m128@@B 0000000180034a80     ConvexHullBuilder.obj
 0003:00000a90       ?minV4Error@_VecMathTests@aos@shdfnd@physx@@3T__m128@@B 0000000180034a90     ConvexHullBuilder.obj
 0003:00000aa0       ?minV3Error@_VecMathTests@aos@shdfnd@physx@@3T__m128@@B 0000000180034aa0     ConvexHullBuilder.obj
 0003:00000ab0       ?maxFError@_VecMathTests@aos@shdfnd@physx@@3T__m128@@B 0000000180034ab0     ConvexHullBuilder.obj
 0003:00000ac0       ?maxV3Error@_VecMathTests@aos@shdfnd@physx@@3T__m128@@B 0000000180034ac0     ConvexHullUtils.obj
 0003:00000ad0       ?minFError@_VecMathTests@aos@shdfnd@physx@@3T__m128@@B 0000000180034ad0     ConvexHullUtils.obj
 0003:00000ae0       ?maxV4Error@_VecMathTests@aos@shdfnd@physx@@3T__m128@@B 0000000180034ae0     ConvexHullUtils.obj
 0003:00000af0       ?minV4Error@_VecMathTests@aos@shdfnd@physx@@3T__m128@@B 0000000180034af0     ConvexHullUtils.obj
 0003:00000b00       ?minV3Error@_VecMathTests@aos@shdfnd@physx@@3T__m128@@B 0000000180034b00     ConvexHullUtils.obj
 0003:00000b10       ?maxFError@_VecMathTests@aos@shdfnd@physx@@3T__m128@@B 0000000180034b10     ConvexHullUtils.obj
 0003:00000b20       ?maxV3Error@_VecMathTests@aos@shdfnd@physx@@3T__m128@@B 0000000180034b20     ConvexMeshBuilder.obj
 0003:00000b30       ?minFError@_VecMathTests@aos@shdfnd@physx@@3T__m128@@B 0000000180034b30     ConvexMeshBuilder.obj
 0003:00000b40       ?maxV4Error@_VecMathTests@aos@shdfnd@physx@@3T__m128@@B 0000000180034b40     ConvexMeshBuilder.obj
 0003:00000b50       ?minV4Error@_VecMathTests@aos@shdfnd@physx@@3T__m128@@B 0000000180034b50     ConvexMeshBuilder.obj
 0003:00000b60       ?minV3Error@_VecMathTests@aos@shdfnd@physx@@3T__m128@@B 0000000180034b60     ConvexMeshBuilder.obj
 0003:00000b70       ?maxFError@_VecMathTests@aos@shdfnd@physx@@3T__m128@@B 0000000180034b70     ConvexMeshBuilder.obj
 0003:00000b80       ?maxV3Error@_VecMathTests@aos@shdfnd@physx@@3T__m128@@B 0000000180034b80     VolumeIntegration.obj
 0003:00000b90       ?minFError@_VecMathTests@aos@shdfnd@physx@@3T__m128@@B 0000000180034b90     VolumeIntegration.obj
 0003:00000ba0       ?maxV4Error@_VecMathTests@aos@shdfnd@physx@@3T__m128@@B 0000000180034ba0     VolumeIntegration.obj
 0003:00000bb0       ?minV4Error@_VecMathTests@aos@shdfnd@physx@@3T__m128@@B 0000000180034bb0     VolumeIntegration.obj
 0003:00000bc0       ?minV3Error@_VecMathTests@aos@shdfnd@physx@@3T__m128@@B 0000000180034bc0     VolumeIntegration.obj
 0003:00000bd0       ?maxFError@_VecMathTests@aos@shdfnd@physx@@3T__m128@@B 0000000180034bd0     VolumeIntegration.obj
 0003:00000be0       ?gCookingDelayLoadHook@@3PEBVPxDelayLoadHook@physx@@EB 0000000180034be0     WindowsCookingDelayLoadHook.obj
 0003:00000c40       ?__proc_attached@@3HA      0000000180034c40     MSVCRT:dll_dllmain.obj
 0003:00000c70       ?is_initialized_as_dll@@3_NA 0000000180034c70     MSVCRT:utility.obj
 0003:00000c71       ?module_local_atexit_table_initialized@@3_NA 0000000180034c71     MSVCRT:utility.obj
 0003:00000c78       ?module_local_atexit_table@@3U_onexit_table_t@@A 0000000180034c78     MSVCRT:utility.obj
 0003:00000c90       ?module_local_at_quick_exit_table@@3U_onexit_table_t@@A 0000000180034c90     MSVCRT:utility.obj
 0005:00000000       _2il0floatpacket$19        0000000180037000     MSVCRT:svml_ssinf4_sse2.obj
 0005:00002200       _vmlsSinHATab              0000000180039200     MSVCRT:svml_s_sin_cout.obj
 0006:000000a0       $R000000                   000000018003a0a0     PhysXCooking.res
 0006:000003d0       $R000330                   000000018003a3d0     PhysXCooking.res
